

Microchip MPLAB XC8 Assembler V2.40 build 20220703182018 
                                                                                               Thu Apr 06 21:00:14 2023

Microchip MPLAB XC8 C Compiler v2.40 (Free license) build 20220703182018 Og1 
     1                           	processor	16F1615
     2                           	pagewidth 120
     3                           	opt	flic
     4                           	psect	idataBANK1,global,class=CODE,delta=2,noexec
     5                           	psect	nvBANK1,global,class=BANK1,space=1,delta=1,noexec
     6                           	psect	stringtext1,global,class=STRCODE,delta=2,noexec
     7                           	psect	stringtext2,global,class=STRCODE,delta=2,noexec
     8                           	psect	stringtext3,global,class=STRCODE,delta=2,noexec
     9                           	psect	stringtext4,global,class=STRCODE,delta=2,noexec
    10                           	psect	stringtext5,global,class=STRCODE,delta=2,noexec
    11                           	psect	stringtext6,global,class=STRCODE,delta=2,noexec
    12                           	psect	stringtext7,global,class=STRCODE,delta=2,noexec
    13                           	psect	cinit,global,class=CODE,merge=1,delta=2
    14                           	psect	bitbssCOMMON,global,bit,class=COMMON,space=1,delta=1,noexec
    15                           	psect	bssBANK1,global,class=BANK1,space=1,delta=1,noexec
    16                           	psect	dataBANK1,global,class=BANK1,space=1,delta=1,noexec
    17                           	psect	inittext,global,class=CODE,delta=2
    18                           	psect	clrtext,global,class=CODE,delta=2
    19                           	psect	cstackBANK1,global,class=BANK1,space=1,delta=1,noexec
    20                           	psect	cstackCOMMON,global,class=COMMON,space=1,delta=1,noexec
    21                           	psect	cstackBANK0,global,class=BANK0,space=1,delta=1,noexec
    22                           	psect	maintext,global,class=CODE,merge=1,split=1,delta=2
    23                           	psect	text1,local,class=CODE,merge=1,delta=2,group=1
    24                           	psect	text2,local,class=CODE,merge=1,delta=2
    25                           	psect	text3,local,class=CODE,merge=1,delta=2
    26                           	psect	text4,local,class=CODE,merge=1,delta=2
    27                           	psect	text5,local,class=CODE,merge=1,delta=2
    28                           	psect	text6,local,class=CODE,merge=1,delta=2
    29                           	psect	text7,local,class=CODE,merge=1,delta=2
    30                           	psect	text8,local,class=CODE,merge=1,delta=2
    31                           	psect	text9,local,class=CODE,merge=1,delta=2
    32                           	psect	text10,local,class=CODE,merge=1,delta=2
    33                           	psect	text11,local,class=CODE,merge=1,delta=2,group=1
    34                           	psect	text12,local,class=CODE,merge=1,delta=2,group=1
    35                           	psect	text13,local,class=CODE,merge=1,delta=2
    36                           	psect	text14,local,class=CODE,merge=1,delta=2
    37                           	psect	text15,local,class=CODE,merge=1,delta=2
    38                           	psect	text16,local,class=CODE,merge=1,delta=2
    39                           	psect	text17,local,class=CODE,merge=1,delta=2
    40                           	psect	text18,local,class=CODE,merge=1,delta=2
    41                           	psect	text19,local,class=CODE,merge=1,delta=2
    42                           	psect	text20,local,class=CODE,merge=1,delta=2,group=1
    43                           	psect	text21,local,class=CODE,merge=1,delta=2,group=1
    44                           	psect	text22,local,class=CODE,merge=1,delta=2,group=1
    45                           	psect	text23,local,class=CODE,merge=1,delta=2,group=1
    46                           	psect	text24,local,class=CODE,merge=1,delta=2,group=1
    47                           	psect	text25,local,class=CODE,merge=1,delta=2,group=1
    48                           	psect	intentry,global,class=CODE,delta=2
    49                           	psect	idloc,global,abs,ovrld,class=IDLOC,space=5,delta=2,noexec
    50                           	psect	config,global,abs,ovrld,class=CONFIG,space=4,delta=2,noexec
    51                           	dabs	1,0x7E,2
    52     0000                     
    53                           ; Version 2.40
    54                           ; Generated 17/11/2021 GMT
    55                           ; 
    56                           ; Copyright © 2021, Microchip Technology Inc. and its subsidiaries ("Microchip")
    57                           ; All rights reserved.
    58                           ; 
    59                           ; This software is developed by Microchip Technology Inc. and its subsidiaries ("Microch
      +                          ip").
    60                           ; 
    61                           ; Redistribution and use in source and binary forms, with or without modification, are
    62                           ; permitted provided that the following conditions are met:
    63                           ; 
    64                           ;     1. Redistributions of source code must retain the above copyright notice, this lis
      +                          t of
    65                           ;        conditions and the following disclaimer.
    66                           ; 
    67                           ;     2. Redistributions in binary form must reproduce the above copyright notice, this 
      +                          list
    68                           ;        of conditions and the following disclaimer in the documentation and/or other
    69                           ;        materials provided with the distribution. Publication is not required when
    70                           ;        this file is used in an embedded application.
    71                           ; 
    72                           ;     3. Microchip's name may not be used to endorse or promote products derived from th
      +                          is
    73                           ;        software without specific prior written permission.
    74                           ; 
    75                           ; THIS SOFTWARE IS PROVIDED BY MICROCHIP "AS IS" AND ANY EXPRESS OR IMPLIED WARRANTIES,
    76                           ; INCLUDING, BUT NOT LIMITED TO, THE IMPLIED WARRANTIES OF MERCHANTABILITY AND FITNESS F
      +                          OR
    77                           ; PURPOSE ARE DISCLAIMED.  IN NO EVENT SHALL MICROCHIP BE LIABLE FOR ANY DIRECT, INDIREC
      +                          T,
    78                           ; INCIDENTAL, SPECIAL, EXEMPLARY, OR CONSEQUENTIAL DAMAGES (INCLUDING BUT NOT LIMITED TO
    79                           ; PROCUREMENT OF SUBSTITUTE GOODS OR SERVICES; LOSS OF USE, DATA OR PROFITS; OR BUSINESS
    80                           ; INTERRUPTION) HOWSOEVER CAUSED AND ON ANY THEORY OF LIABILITY, WHETHER IN CONTRACT, ST
      +                          RICT
    81                           ; LIABILITY, OR TORT (INCLUDING NEGLIGENCE OR OTHERWISE) ARISING IN ANY WAY OUT OF THE U
      +                          SE OF
    82                           ; THIS SOFTWARE, EVEN IF ADVISED OF THE POSSIBILITY OF SUCH DAMAGE.
    83                           ; 
    84                           ; 
    85                           ; Code-generator required, PIC16F1615 Definitions
    86                           ; 
    87                           ; SFR Addresses
    88     0000                     	;# 
    89     0001                     	;# 
    90     0002                     	;# 
    91     0003                     	;# 
    92     0004                     	;# 
    93     0005                     	;# 
    94     0006                     	;# 
    95     0007                     	;# 
    96     0008                     	;# 
    97     0009                     	;# 
    98     000A                     	;# 
    99     000B                     	;# 
   100     000C                     	;# 
   101     000E                     	;# 
   102     0010                     	;# 
   103     0011                     	;# 
   104     0012                     	;# 
   105     0013                     	;# 
   106     0014                     	;# 
   107     0015                     	;# 
   108     0016                     	;# 
   109     0016                     	;# 
   110     0017                     	;# 
   111     0018                     	;# 
   112     0019                     	;# 
   113     001A                     	;# 
   114     001A                     	;# 
   115     001B                     	;# 
   116     001B                     	;# 
   117     001C                     	;# 
   118     001D                     	;# 
   119     001E                     	;# 
   120     001F                     	;# 
   121     008C                     	;# 
   122     008E                     	;# 
   123     0090                     	;# 
   124     0091                     	;# 
   125     0092                     	;# 
   126     0093                     	;# 
   127     0094                     	;# 
   128     0095                     	;# 
   129     0096                     	;# 
   130     0098                     	;# 
   131     0099                     	;# 
   132     009A                     	;# 
   133     009B                     	;# 
   134     009B                     	;# 
   135     009C                     	;# 
   136     009D                     	;# 
   137     009E                     	;# 
   138     009F                     	;# 
   139     010C                     	;# 
   140     010E                     	;# 
   141     0111                     	;# 
   142     0112                     	;# 
   143     0113                     	;# 
   144     0114                     	;# 
   145     0115                     	;# 
   146     0116                     	;# 
   147     0117                     	;# 
   148     0118                     	;# 
   149     0119                     	;# 
   150     011C                     	;# 
   151     018C                     	;# 
   152     018E                     	;# 
   153     0191                     	;# 
   154     0191                     	;# 
   155     0192                     	;# 
   156     0193                     	;# 
   157     0193                     	;# 
   158     0194                     	;# 
   159     0195                     	;# 
   160     0196                     	;# 
   161     0197                     	;# 
   162     0199                     	;# 
   163     0199                     	;# 
   164     0199                     	;# 
   165     019A                     	;# 
   166     019A                     	;# 
   167     019A                     	;# 
   168     019B                     	;# 
   169     019B                     	;# 
   170     019B                     	;# 
   171     019B                     	;# 
   172     019B                     	;# 
   173     019C                     	;# 
   174     019C                     	;# 
   175     019C                     	;# 
   176     019D                     	;# 
   177     019D                     	;# 
   178     019D                     	;# 
   179     019E                     	;# 
   180     019E                     	;# 
   181     019E                     	;# 
   182     019F                     	;# 
   183     019F                     	;# 
   184     019F                     	;# 
   185     019F                     	;# 
   186     019F                     	;# 
   187     020C                     	;# 
   188     020E                     	;# 
   189     0211                     	;# 
   190     0211                     	;# 
   191     0212                     	;# 
   192     0212                     	;# 
   193     0213                     	;# 
   194     0213                     	;# 
   195     0214                     	;# 
   196     0214                     	;# 
   197     0215                     	;# 
   198     0215                     	;# 
   199     0215                     	;# 
   200     0215                     	;# 
   201     0216                     	;# 
   202     0216                     	;# 
   203     0217                     	;# 
   204     0217                     	;# 
   205     028C                     	;# 
   206     028E                     	;# 
   207     0291                     	;# 
   208     0291                     	;# 
   209     0292                     	;# 
   210     0293                     	;# 
   211     0294                     	;# 
   212     0298                     	;# 
   213     0298                     	;# 
   214     0299                     	;# 
   215     029A                     	;# 
   216     029B                     	;# 
   217     029E                     	;# 
   218     030C                     	;# 
   219     030E                     	;# 
   220     038C                     	;# 
   221     038E                     	;# 
   222     0391                     	;# 
   223     0392                     	;# 
   224     0393                     	;# 
   225     0397                     	;# 
   226     0398                     	;# 
   227     0399                     	;# 
   228     040E                     	;# 
   229     0413                     	;# 
   230     0413                     	;# 
   231     0414                     	;# 
   232     0414                     	;# 
   233     0415                     	;# 
   234     0416                     	;# 
   235     0417                     	;# 
   236     0418                     	;# 
   237     041A                     	;# 
   238     041A                     	;# 
   239     041B                     	;# 
   240     041B                     	;# 
   241     041C                     	;# 
   242     041D                     	;# 
   243     041E                     	;# 
   244     041F                     	;# 
   245     0493                     	;# 
   246     0494                     	;# 
   247     0495                     	;# 
   248     0496                     	;# 
   249     049A                     	;# 
   250     049B                     	;# 
   251     049C                     	;# 
   252     049D                     	;# 
   253     058C                     	;# 
   254     058C                     	;# 
   255     058D                     	;# 
   256     058E                     	;# 
   257     058E                     	;# 
   258     058F                     	;# 
   259     0590                     	;# 
   260     0590                     	;# 
   261     0591                     	;# 
   262     0592                     	;# 
   263     0592                     	;# 
   264     0593                     	;# 
   265     0594                     	;# 
   266     0594                     	;# 
   267     0595                     	;# 
   268     0596                     	;# 
   269     0596                     	;# 
   270     0597                     	;# 
   271     0598                     	;# 
   272     0599                     	;# 
   273     059A                     	;# 
   274     059B                     	;# 
   275     059B                     	;# 
   276     059C                     	;# 
   277     059D                     	;# 
   278     060C                     	;# 
   279     060C                     	;# 
   280     060D                     	;# 
   281     060E                     	;# 
   282     060F                     	;# 
   283     060F                     	;# 
   284     0610                     	;# 
   285     0611                     	;# 
   286     0612                     	;# 
   287     0613                     	;# 
   288     0614                     	;# 
   289     0617                     	;# 
   290     0617                     	;# 
   291     0618                     	;# 
   292     0619                     	;# 
   293     061A                     	;# 
   294     061A                     	;# 
   295     061B                     	;# 
   296     061C                     	;# 
   297     0691                     	;# 
   298     0692                     	;# 
   299     0693                     	;# 
   300     0694                     	;# 
   301     0695                     	;# 
   302     0696                     	;# 
   303     0697                     	;# 
   304     0699                     	;# 
   305     069A                     	;# 
   306     0711                     	;# 
   307     0712                     	;# 
   308     0713                     	;# 
   309     0714                     	;# 
   310     0715                     	;# 
   311     0718                     	;# 
   312     0718                     	;# 
   313     0719                     	;# 
   314     071A                     	;# 
   315     071A                     	;# 
   316     071B                     	;# 
   317     071C                     	;# 
   318     071D                     	;# 
   319     0791                     	;# 
   320     0791                     	;# 
   321     0792                     	;# 
   322     0793                     	;# 
   323     0793                     	;# 
   324     0794                     	;# 
   325     0795                     	;# 
   326     0795                     	;# 
   327     0796                     	;# 
   328     0797                     	;# 
   329     0797                     	;# 
   330     0798                     	;# 
   331     0799                     	;# 
   332     079A                     	;# 
   333     080C                     	;# 
   334     080C                     	;# 
   335     080D                     	;# 
   336     080E                     	;# 
   337     080E                     	;# 
   338     080F                     	;# 
   339     0810                     	;# 
   340     0810                     	;# 
   341     0811                     	;# 
   342     0812                     	;# 
   343     0812                     	;# 
   344     0813                     	;# 
   345     0814                     	;# 
   346     0815                     	;# 
   347     0816                     	;# 
   348     0817                     	;# 
   349     0818                     	;# 
   350     0819                     	;# 
   351     081A                     	;# 
   352     081A                     	;# 
   353     081B                     	;# 
   354     081C                     	;# 
   355     081C                     	;# 
   356     081D                     	;# 
   357     088C                     	;# 
   358     088D                     	;# 
   359     088E                     	;# 
   360     088F                     	;# 
   361     088F                     	;# 
   362     0890                     	;# 
   363     0891                     	;# 
   364     0892                     	;# 
   365     0893                     	;# 
   366     0893                     	;# 
   367     0894                     	;# 
   368     0895                     	;# 
   369     0896                     	;# 
   370     0897                     	;# 
   371     0897                     	;# 
   372     0898                     	;# 
   373     0899                     	;# 
   374     0D8C                     	;# 
   375     0D8C                     	;# 
   376     0D8D                     	;# 
   377     0D8E                     	;# 
   378     0D8F                     	;# 
   379     0D8F                     	;# 
   380     0D90                     	;# 
   381     0D91                     	;# 
   382     0D92                     	;# 
   383     0D92                     	;# 
   384     0D93                     	;# 
   385     0D94                     	;# 
   386     0D95                     	;# 
   387     0D95                     	;# 
   388     0D96                     	;# 
   389     0D97                     	;# 
   390     0D98                     	;# 
   391     0D99                     	;# 
   392     0D9A                     	;# 
   393     0D9B                     	;# 
   394     0D9C                     	;# 
   395     0D9D                     	;# 
   396     0D9E                     	;# 
   397     0D9E                     	;# 
   398     0D9F                     	;# 
   399     0DA0                     	;# 
   400     0DA1                     	;# 
   401     0DA1                     	;# 
   402     0DA2                     	;# 
   403     0DA3                     	;# 
   404     0DA4                     	;# 
   405     0DA4                     	;# 
   406     0DA5                     	;# 
   407     0DA6                     	;# 
   408     0DA7                     	;# 
   409     0DA7                     	;# 
   410     0DA8                     	;# 
   411     0DA9                     	;# 
   412     0DAA                     	;# 
   413     0DAB                     	;# 
   414     0DAC                     	;# 
   415     0DAD                     	;# 
   416     0DAE                     	;# 
   417     0DAF                     	;# 
   418     0E0F                     	;# 
   419     0E10                     	;# 
   420     0E11                     	;# 
   421     0E12                     	;# 
   422     0E13                     	;# 
   423     0E14                     	;# 
   424     0E15                     	;# 
   425     0E16                     	;# 
   426     0E17                     	;# 
   427     0E18                     	;# 
   428     0E19                     	;# 
   429     0E1A                     	;# 
   430     0E1B                     	;# 
   431     0E1C                     	;# 
   432     0E1D                     	;# 
   433     0E1E                     	;# 
   434     0E1F                     	;# 
   435     0E20                     	;# 
   436     0E21                     	;# 
   437     0E22                     	;# 
   438     0E23                     	;# 
   439     0E24                     	;# 
   440     0E25                     	;# 
   441     0E26                     	;# 
   442     0E27                     	;# 
   443     0E28                     	;# 
   444     0E29                     	;# 
   445     0E2A                     	;# 
   446     0E2B                     	;# 
   447     0E2C                     	;# 
   448     0E2D                     	;# 
   449     0E2E                     	;# 
   450     0E90                     	;# 
   451     0E91                     	;# 
   452     0E92                     	;# 
   453     0E94                     	;# 
   454     0E95                     	;# 
   455     0EA0                     	;# 
   456     0EA1                     	;# 
   457     0EA2                     	;# 
   458     0EA3                     	;# 
   459     0EA4                     	;# 
   460     0EA5                     	;# 
   461     0F0F                     	;# 
   462     0F10                     	;# 
   463     0F11                     	;# 
   464     0F12                     	;# 
   465     0F13                     	;# 
   466     0F14                     	;# 
   467     0F15                     	;# 
   468     0F16                     	;# 
   469     0F17                     	;# 
   470     0F18                     	;# 
   471     0F19                     	;# 
   472     0F1A                     	;# 
   473     0F1B                     	;# 
   474     0F1C                     	;# 
   475     0F1D                     	;# 
   476     0F1E                     	;# 
   477     0F1F                     	;# 
   478     0F20                     	;# 
   479     0F21                     	;# 
   480     0F22                     	;# 
   481     0F23                     	;# 
   482     0F24                     	;# 
   483     0F25                     	;# 
   484     0F26                     	;# 
   485     0F27                     	;# 
   486     0F28                     	;# 
   487     0F29                     	;# 
   488     0F2A                     	;# 
   489     0F2B                     	;# 
   490     0F2C                     	;# 
   491     0F2D                     	;# 
   492     0F2E                     	;# 
   493     0F2F                     	;# 
   494     0F30                     	;# 
   495     0F31                     	;# 
   496     0F32                     	;# 
   497     0F33                     	;# 
   498     0F34                     	;# 
   499     0F35                     	;# 
   500     0F36                     	;# 
   501     0F37                     	;# 
   502     0FE4                     	;# 
   503     0FE5                     	;# 
   504     0FE6                     	;# 
   505     0FE7                     	;# 
   506     0FE8                     	;# 
   507     0FE9                     	;# 
   508     0FEA                     	;# 
   509     0FEB                     	;# 
   510     0FED                     	;# 
   511     0FEE                     	;# 
   512     0FEF                     	;# 
   513     0000                     	;# 
   514     0001                     	;# 
   515     0002                     	;# 
   516     0003                     	;# 
   517     0004                     	;# 
   518     0005                     	;# 
   519     0006                     	;# 
   520     0007                     	;# 
   521     0008                     	;# 
   522     0009                     	;# 
   523     000A                     	;# 
   524     000B                     	;# 
   525     000C                     	;# 
   526     000E                     	;# 
   527     0010                     	;# 
   528     0011                     	;# 
   529     0012                     	;# 
   530     0013                     	;# 
   531     0014                     	;# 
   532     0015                     	;# 
   533     0016                     	;# 
   534     0016                     	;# 
   535     0017                     	;# 
   536     0018                     	;# 
   537     0019                     	;# 
   538     001A                     	;# 
   539     001A                     	;# 
   540     001B                     	;# 
   541     001B                     	;# 
   542     001C                     	;# 
   543     001D                     	;# 
   544     001E                     	;# 
   545     001F                     	;# 
   546     008C                     	;# 
   547     008E                     	;# 
   548     0090                     	;# 
   549     0091                     	;# 
   550     0092                     	;# 
   551     0093                     	;# 
   552     0094                     	;# 
   553     0095                     	;# 
   554     0096                     	;# 
   555     0098                     	;# 
   556     0099                     	;# 
   557     009A                     	;# 
   558     009B                     	;# 
   559     009B                     	;# 
   560     009C                     	;# 
   561     009D                     	;# 
   562     009E                     	;# 
   563     009F                     	;# 
   564     010C                     	;# 
   565     010E                     	;# 
   566     0111                     	;# 
   567     0112                     	;# 
   568     0113                     	;# 
   569     0114                     	;# 
   570     0115                     	;# 
   571     0116                     	;# 
   572     0117                     	;# 
   573     0118                     	;# 
   574     0119                     	;# 
   575     011C                     	;# 
   576     018C                     	;# 
   577     018E                     	;# 
   578     0191                     	;# 
   579     0191                     	;# 
   580     0192                     	;# 
   581     0193                     	;# 
   582     0193                     	;# 
   583     0194                     	;# 
   584     0195                     	;# 
   585     0196                     	;# 
   586     0197                     	;# 
   587     0199                     	;# 
   588     0199                     	;# 
   589     0199                     	;# 
   590     019A                     	;# 
   591     019A                     	;# 
   592     019A                     	;# 
   593     019B                     	;# 
   594     019B                     	;# 
   595     019B                     	;# 
   596     019B                     	;# 
   597     019B                     	;# 
   598     019C                     	;# 
   599     019C                     	;# 
   600     019C                     	;# 
   601     019D                     	;# 
   602     019D                     	;# 
   603     019D                     	;# 
   604     019E                     	;# 
   605     019E                     	;# 
   606     019E                     	;# 
   607     019F                     	;# 
   608     019F                     	;# 
   609     019F                     	;# 
   610     019F                     	;# 
   611     019F                     	;# 
   612     020C                     	;# 
   613     020E                     	;# 
   614     0211                     	;# 
   615     0211                     	;# 
   616     0212                     	;# 
   617     0212                     	;# 
   618     0213                     	;# 
   619     0213                     	;# 
   620     0214                     	;# 
   621     0214                     	;# 
   622     0215                     	;# 
   623     0215                     	;# 
   624     0215                     	;# 
   625     0215                     	;# 
   626     0216                     	;# 
   627     0216                     	;# 
   628     0217                     	;# 
   629     0217                     	;# 
   630     028C                     	;# 
   631     028E                     	;# 
   632     0291                     	;# 
   633     0291                     	;# 
   634     0292                     	;# 
   635     0293                     	;# 
   636     0294                     	;# 
   637     0298                     	;# 
   638     0298                     	;# 
   639     0299                     	;# 
   640     029A                     	;# 
   641     029B                     	;# 
   642     029E                     	;# 
   643     030C                     	;# 
   644     030E                     	;# 
   645     038C                     	;# 
   646     038E                     	;# 
   647     0391                     	;# 
   648     0392                     	;# 
   649     0393                     	;# 
   650     0397                     	;# 
   651     0398                     	;# 
   652     0399                     	;# 
   653     040E                     	;# 
   654     0413                     	;# 
   655     0413                     	;# 
   656     0414                     	;# 
   657     0414                     	;# 
   658     0415                     	;# 
   659     0416                     	;# 
   660     0417                     	;# 
   661     0418                     	;# 
   662     041A                     	;# 
   663     041A                     	;# 
   664     041B                     	;# 
   665     041B                     	;# 
   666     041C                     	;# 
   667     041D                     	;# 
   668     041E                     	;# 
   669     041F                     	;# 
   670     0493                     	;# 
   671     0494                     	;# 
   672     0495                     	;# 
   673     0496                     	;# 
   674     049A                     	;# 
   675     049B                     	;# 
   676     049C                     	;# 
   677     049D                     	;# 
   678     058C                     	;# 
   679     058C                     	;# 
   680     058D                     	;# 
   681     058E                     	;# 
   682     058E                     	;# 
   683     058F                     	;# 
   684     0590                     	;# 
   685     0590                     	;# 
   686     0591                     	;# 
   687     0592                     	;# 
   688     0592                     	;# 
   689     0593                     	;# 
   690     0594                     	;# 
   691     0594                     	;# 
   692     0595                     	;# 
   693     0596                     	;# 
   694     0596                     	;# 
   695     0597                     	;# 
   696     0598                     	;# 
   697     0599                     	;# 
   698     059A                     	;# 
   699     059B                     	;# 
   700     059B                     	;# 
   701     059C                     	;# 
   702     059D                     	;# 
   703     060C                     	;# 
   704     060C                     	;# 
   705     060D                     	;# 
   706     060E                     	;# 
   707     060F                     	;# 
   708     060F                     	;# 
   709     0610                     	;# 
   710     0611                     	;# 
   711     0612                     	;# 
   712     0613                     	;# 
   713     0614                     	;# 
   714     0617                     	;# 
   715     0617                     	;# 
   716     0618                     	;# 
   717     0619                     	;# 
   718     061A                     	;# 
   719     061A                     	;# 
   720     061B                     	;# 
   721     061C                     	;# 
   722     0691                     	;# 
   723     0692                     	;# 
   724     0693                     	;# 
   725     0694                     	;# 
   726     0695                     	;# 
   727     0696                     	;# 
   728     0697                     	;# 
   729     0699                     	;# 
   730     069A                     	;# 
   731     0711                     	;# 
   732     0712                     	;# 
   733     0713                     	;# 
   734     0714                     	;# 
   735     0715                     	;# 
   736     0718                     	;# 
   737     0718                     	;# 
   738     0719                     	;# 
   739     071A                     	;# 
   740     071A                     	;# 
   741     071B                     	;# 
   742     071C                     	;# 
   743     071D                     	;# 
   744     0791                     	;# 
   745     0791                     	;# 
   746     0792                     	;# 
   747     0793                     	;# 
   748     0793                     	;# 
   749     0794                     	;# 
   750     0795                     	;# 
   751     0795                     	;# 
   752     0796                     	;# 
   753     0797                     	;# 
   754     0797                     	;# 
   755     0798                     	;# 
   756     0799                     	;# 
   757     079A                     	;# 
   758     080C                     	;# 
   759     080C                     	;# 
   760     080D                     	;# 
   761     080E                     	;# 
   762     080E                     	;# 
   763     080F                     	;# 
   764     0810                     	;# 
   765     0810                     	;# 
   766     0811                     	;# 
   767     0812                     	;# 
   768     0812                     	;# 
   769     0813                     	;# 
   770     0814                     	;# 
   771     0815                     	;# 
   772     0816                     	;# 
   773     0817                     	;# 
   774     0818                     	;# 
   775     0819                     	;# 
   776     081A                     	;# 
   777     081A                     	;# 
   778     081B                     	;# 
   779     081C                     	;# 
   780     081C                     	;# 
   781     081D                     	;# 
   782     088C                     	;# 
   783     088D                     	;# 
   784     088E                     	;# 
   785     088F                     	;# 
   786     088F                     	;# 
   787     0890                     	;# 
   788     0891                     	;# 
   789     0892                     	;# 
   790     0893                     	;# 
   791     0893                     	;# 
   792     0894                     	;# 
   793     0895                     	;# 
   794     0896                     	;# 
   795     0897                     	;# 
   796     0897                     	;# 
   797     0898                     	;# 
   798     0899                     	;# 
   799     0D8C                     	;# 
   800     0D8C                     	;# 
   801     0D8D                     	;# 
   802     0D8E                     	;# 
   803     0D8F                     	;# 
   804     0D8F                     	;# 
   805     0D90                     	;# 
   806     0D91                     	;# 
   807     0D92                     	;# 
   808     0D92                     	;# 
   809     0D93                     	;# 
   810     0D94                     	;# 
   811     0D95                     	;# 
   812     0D95                     	;# 
   813     0D96                     	;# 
   814     0D97                     	;# 
   815     0D98                     	;# 
   816     0D99                     	;# 
   817     0D9A                     	;# 
   818     0D9B                     	;# 
   819     0D9C                     	;# 
   820     0D9D                     	;# 
   821     0D9E                     	;# 
   822     0D9E                     	;# 
   823     0D9F                     	;# 
   824     0DA0                     	;# 
   825     0DA1                     	;# 
   826     0DA1                     	;# 
   827     0DA2                     	;# 
   828     0DA3                     	;# 
   829     0DA4                     	;# 
   830     0DA4                     	;# 
   831     0DA5                     	;# 
   832     0DA6                     	;# 
   833     0DA7                     	;# 
   834     0DA7                     	;# 
   835     0DA8                     	;# 
   836     0DA9                     	;# 
   837     0DAA                     	;# 
   838     0DAB                     	;# 
   839     0DAC                     	;# 
   840     0DAD                     	;# 
   841     0DAE                     	;# 
   842     0DAF                     	;# 
   843     0E0F                     	;# 
   844     0E10                     	;# 
   845     0E11                     	;# 
   846     0E12                     	;# 
   847     0E13                     	;# 
   848     0E14                     	;# 
   849     0E15                     	;# 
   850     0E16                     	;# 
   851     0E17                     	;# 
   852     0E18                     	;# 
   853     0E19                     	;# 
   854     0E1A                     	;# 
   855     0E1B                     	;# 
   856     0E1C                     	;# 
   857     0E1D                     	;# 
   858     0E1E                     	;# 
   859     0E1F                     	;# 
   860     0E20                     	;# 
   861     0E21                     	;# 
   862     0E22                     	;# 
   863     0E23                     	;# 
   864     0E24                     	;# 
   865     0E25                     	;# 
   866     0E26                     	;# 
   867     0E27                     	;# 
   868     0E28                     	;# 
   869     0E29                     	;# 
   870     0E2A                     	;# 
   871     0E2B                     	;# 
   872     0E2C                     	;# 
   873     0E2D                     	;# 
   874     0E2E                     	;# 
   875     0E90                     	;# 
   876     0E91                     	;# 
   877     0E92                     	;# 
   878     0E94                     	;# 
   879     0E95                     	;# 
   880     0EA0                     	;# 
   881     0EA1                     	;# 
   882     0EA2                     	;# 
   883     0EA3                     	;# 
   884     0EA4                     	;# 
   885     0EA5                     	;# 
   886     0F0F                     	;# 
   887     0F10                     	;# 
   888     0F11                     	;# 
   889     0F12                     	;# 
   890     0F13                     	;# 
   891     0F14                     	;# 
   892     0F15                     	;# 
   893     0F16                     	;# 
   894     0F17                     	;# 
   895     0F18                     	;# 
   896     0F19                     	;# 
   897     0F1A                     	;# 
   898     0F1B                     	;# 
   899     0F1C                     	;# 
   900     0F1D                     	;# 
   901     0F1E                     	;# 
   902     0F1F                     	;# 
   903     0F20                     	;# 
   904     0F21                     	;# 
   905     0F22                     	;# 
   906     0F23                     	;# 
   907     0F24                     	;# 
   908     0F25                     	;# 
   909     0F26                     	;# 
   910     0F27                     	;# 
   911     0F28                     	;# 
   912     0F29                     	;# 
   913     0F2A                     	;# 
   914     0F2B                     	;# 
   915     0F2C                     	;# 
   916     0F2D                     	;# 
   917     0F2E                     	;# 
   918     0F2F                     	;# 
   919     0F30                     	;# 
   920     0F31                     	;# 
   921     0F32                     	;# 
   922     0F33                     	;# 
   923     0F34                     	;# 
   924     0F35                     	;# 
   925     0F36                     	;# 
   926     0F37                     	;# 
   927     0FE4                     	;# 
   928     0FE5                     	;# 
   929     0FE6                     	;# 
   930     0FE7                     	;# 
   931     0FE8                     	;# 
   932     0FE9                     	;# 
   933     0FEA                     	;# 
   934     0FEB                     	;# 
   935     0FED                     	;# 
   936     0FEE                     	;# 
   937     0FEF                     	;# 
   938     0000                     	;# 
   939     0001                     	;# 
   940     0002                     	;# 
   941     0003                     	;# 
   942     0004                     	;# 
   943     0005                     	;# 
   944     0006                     	;# 
   945     0007                     	;# 
   946     0008                     	;# 
   947     0009                     	;# 
   948     000A                     	;# 
   949     000B                     	;# 
   950     000C                     	;# 
   951     000E                     	;# 
   952     0010                     	;# 
   953     0011                     	;# 
   954     0012                     	;# 
   955     0013                     	;# 
   956     0014                     	;# 
   957     0015                     	;# 
   958     0016                     	;# 
   959     0016                     	;# 
   960     0017                     	;# 
   961     0018                     	;# 
   962     0019                     	;# 
   963     001A                     	;# 
   964     001A                     	;# 
   965     001B                     	;# 
   966     001B                     	;# 
   967     001C                     	;# 
   968     001D                     	;# 
   969     001E                     	;# 
   970     001F                     	;# 
   971     008C                     	;# 
   972     008E                     	;# 
   973     0090                     	;# 
   974     0091                     	;# 
   975     0092                     	;# 
   976     0093                     	;# 
   977     0094                     	;# 
   978     0095                     	;# 
   979     0096                     	;# 
   980     0098                     	;# 
   981     0099                     	;# 
   982     009A                     	;# 
   983     009B                     	;# 
   984     009B                     	;# 
   985     009C                     	;# 
   986     009D                     	;# 
   987     009E                     	;# 
   988     009F                     	;# 
   989     010C                     	;# 
   990     010E                     	;# 
   991     0111                     	;# 
   992     0112                     	;# 
   993     0113                     	;# 
   994     0114                     	;# 
   995     0115                     	;# 
   996     0116                     	;# 
   997     0117                     	;# 
   998     0118                     	;# 
   999     0119                     	;# 
  1000     011C                     	;# 
  1001     018C                     	;# 
  1002     018E                     	;# 
  1003     0191                     	;# 
  1004     0191                     	;# 
  1005     0192                     	;# 
  1006     0193                     	;# 
  1007     0193                     	;# 
  1008     0194                     	;# 
  1009     0195                     	;# 
  1010     0196                     	;# 
  1011     0197                     	;# 
  1012     0199                     	;# 
  1013     0199                     	;# 
  1014     0199                     	;# 
  1015     019A                     	;# 
  1016     019A                     	;# 
  1017     019A                     	;# 
  1018     019B                     	;# 
  1019     019B                     	;# 
  1020     019B                     	;# 
  1021     019B                     	;# 
  1022     019B                     	;# 
  1023     019C                     	;# 
  1024     019C                     	;# 
  1025     019C                     	;# 
  1026     019D                     	;# 
  1027     019D                     	;# 
  1028     019D                     	;# 
  1029     019E                     	;# 
  1030     019E                     	;# 
  1031     019E                     	;# 
  1032     019F                     	;# 
  1033     019F                     	;# 
  1034     019F                     	;# 
  1035     019F                     	;# 
  1036     019F                     	;# 
  1037     020C                     	;# 
  1038     020E                     	;# 
  1039     0211                     	;# 
  1040     0211                     	;# 
  1041     0212                     	;# 
  1042     0212                     	;# 
  1043     0213                     	;# 
  1044     0213                     	;# 
  1045     0214                     	;# 
  1046     0214                     	;# 
  1047     0215                     	;# 
  1048     0215                     	;# 
  1049     0215                     	;# 
  1050     0215                     	;# 
  1051     0216                     	;# 
  1052     0216                     	;# 
  1053     0217                     	;# 
  1054     0217                     	;# 
  1055     028C                     	;# 
  1056     028E                     	;# 
  1057     0291                     	;# 
  1058     0291                     	;# 
  1059     0292                     	;# 
  1060     0293                     	;# 
  1061     0294                     	;# 
  1062     0298                     	;# 
  1063     0298                     	;# 
  1064     0299                     	;# 
  1065     029A                     	;# 
  1066     029B                     	;# 
  1067     029E                     	;# 
  1068     030C                     	;# 
  1069     030E                     	;# 
  1070     038C                     	;# 
  1071     038E                     	;# 
  1072     0391                     	;# 
  1073     0392                     	;# 
  1074     0393                     	;# 
  1075     0397                     	;# 
  1076     0398                     	;# 
  1077     0399                     	;# 
  1078     040E                     	;# 
  1079     0413                     	;# 
  1080     0413                     	;# 
  1081     0414                     	;# 
  1082     0414                     	;# 
  1083     0415                     	;# 
  1084     0416                     	;# 
  1085     0417                     	;# 
  1086     0418                     	;# 
  1087     041A                     	;# 
  1088     041A                     	;# 
  1089     041B                     	;# 
  1090     041B                     	;# 
  1091     041C                     	;# 
  1092     041D                     	;# 
  1093     041E                     	;# 
  1094     041F                     	;# 
  1095     0493                     	;# 
  1096     0494                     	;# 
  1097     0495                     	;# 
  1098     0496                     	;# 
  1099     049A                     	;# 
  1100     049B                     	;# 
  1101     049C                     	;# 
  1102     049D                     	;# 
  1103     058C                     	;# 
  1104     058C                     	;# 
  1105     058D                     	;# 
  1106     058E                     	;# 
  1107     058E                     	;# 
  1108     058F                     	;# 
  1109     0590                     	;# 
  1110     0590                     	;# 
  1111     0591                     	;# 
  1112     0592                     	;# 
  1113     0592                     	;# 
  1114     0593                     	;# 
  1115     0594                     	;# 
  1116     0594                     	;# 
  1117     0595                     	;# 
  1118     0596                     	;# 
  1119     0596                     	;# 
  1120     0597                     	;# 
  1121     0598                     	;# 
  1122     0599                     	;# 
  1123     059A                     	;# 
  1124     059B                     	;# 
  1125     059B                     	;# 
  1126     059C                     	;# 
  1127     059D                     	;# 
  1128     060C                     	;# 
  1129     060C                     	;# 
  1130     060D                     	;# 
  1131     060E                     	;# 
  1132     060F                     	;# 
  1133     060F                     	;# 
  1134     0610                     	;# 
  1135     0611                     	;# 
  1136     0612                     	;# 
  1137     0613                     	;# 
  1138     0614                     	;# 
  1139     0617                     	;# 
  1140     0617                     	;# 
  1141     0618                     	;# 
  1142     0619                     	;# 
  1143     061A                     	;# 
  1144     061A                     	;# 
  1145     061B                     	;# 
  1146     061C                     	;# 
  1147     0691                     	;# 
  1148     0692                     	;# 
  1149     0693                     	;# 
  1150     0694                     	;# 
  1151     0695                     	;# 
  1152     0696                     	;# 
  1153     0697                     	;# 
  1154     0699                     	;# 
  1155     069A                     	;# 
  1156     0711                     	;# 
  1157     0712                     	;# 
  1158     0713                     	;# 
  1159     0714                     	;# 
  1160     0715                     	;# 
  1161     0718                     	;# 
  1162     0718                     	;# 
  1163     0719                     	;# 
  1164     071A                     	;# 
  1165     071A                     	;# 
  1166     071B                     	;# 
  1167     071C                     	;# 
  1168     071D                     	;# 
  1169     0791                     	;# 
  1170     0791                     	;# 
  1171     0792                     	;# 
  1172     0793                     	;# 
  1173     0793                     	;# 
  1174     0794                     	;# 
  1175     0795                     	;# 
  1176     0795                     	;# 
  1177     0796                     	;# 
  1178     0797                     	;# 
  1179     0797                     	;# 
  1180     0798                     	;# 
  1181     0799                     	;# 
  1182     079A                     	;# 
  1183     080C                     	;# 
  1184     080C                     	;# 
  1185     080D                     	;# 
  1186     080E                     	;# 
  1187     080E                     	;# 
  1188     080F                     	;# 
  1189     0810                     	;# 
  1190     0810                     	;# 
  1191     0811                     	;# 
  1192     0812                     	;# 
  1193     0812                     	;# 
  1194     0813                     	;# 
  1195     0814                     	;# 
  1196     0815                     	;# 
  1197     0816                     	;# 
  1198     0817                     	;# 
  1199     0818                     	;# 
  1200     0819                     	;# 
  1201     081A                     	;# 
  1202     081A                     	;# 
  1203     081B                     	;# 
  1204     081C                     	;# 
  1205     081C                     	;# 
  1206     081D                     	;# 
  1207     088C                     	;# 
  1208     088D                     	;# 
  1209     088E                     	;# 
  1210     088F                     	;# 
  1211     088F                     	;# 
  1212     0890                     	;# 
  1213     0891                     	;# 
  1214     0892                     	;# 
  1215     0893                     	;# 
  1216     0893                     	;# 
  1217     0894                     	;# 
  1218     0895                     	;# 
  1219     0896                     	;# 
  1220     0897                     	;# 
  1221     0897                     	;# 
  1222     0898                     	;# 
  1223     0899                     	;# 
  1224     0D8C                     	;# 
  1225     0D8C                     	;# 
  1226     0D8D                     	;# 
  1227     0D8E                     	;# 
  1228     0D8F                     	;# 
  1229     0D8F                     	;# 
  1230     0D90                     	;# 
  1231     0D91                     	;# 
  1232     0D92                     	;# 
  1233     0D92                     	;# 
  1234     0D93                     	;# 
  1235     0D94                     	;# 
  1236     0D95                     	;# 
  1237     0D95                     	;# 
  1238     0D96                     	;# 
  1239     0D97                     	;# 
  1240     0D98                     	;# 
  1241     0D99                     	;# 
  1242     0D9A                     	;# 
  1243     0D9B                     	;# 
  1244     0D9C                     	;# 
  1245     0D9D                     	;# 
  1246     0D9E                     	;# 
  1247     0D9E                     	;# 
  1248     0D9F                     	;# 
  1249     0DA0                     	;# 
  1250     0DA1                     	;# 
  1251     0DA1                     	;# 
  1252     0DA2                     	;# 
  1253     0DA3                     	;# 
  1254     0DA4                     	;# 
  1255     0DA4                     	;# 
  1256     0DA5                     	;# 
  1257     0DA6                     	;# 
  1258     0DA7                     	;# 
  1259     0DA7                     	;# 
  1260     0DA8                     	;# 
  1261     0DA9                     	;# 
  1262     0DAA                     	;# 
  1263     0DAB                     	;# 
  1264     0DAC                     	;# 
  1265     0DAD                     	;# 
  1266     0DAE                     	;# 
  1267     0DAF                     	;# 
  1268     0E0F                     	;# 
  1269     0E10                     	;# 
  1270     0E11                     	;# 
  1271     0E12                     	;# 
  1272     0E13                     	;# 
  1273     0E14                     	;# 
  1274     0E15                     	;# 
  1275     0E16                     	;# 
  1276     0E17                     	;# 
  1277     0E18                     	;# 
  1278     0E19                     	;# 
  1279     0E1A                     	;# 
  1280     0E1B                     	;# 
  1281     0E1C                     	;# 
  1282     0E1D                     	;# 
  1283     0E1E                     	;# 
  1284     0E1F                     	;# 
  1285     0E20                     	;# 
  1286     0E21                     	;# 
  1287     0E22                     	;# 
  1288     0E23                     	;# 
  1289     0E24                     	;# 
  1290     0E25                     	;# 
  1291     0E26                     	;# 
  1292     0E27                     	;# 
  1293     0E28                     	;# 
  1294     0E29                     	;# 
  1295     0E2A                     	;# 
  1296     0E2B                     	;# 
  1297     0E2C                     	;# 
  1298     0E2D                     	;# 
  1299     0E2E                     	;# 
  1300     0E90                     	;# 
  1301     0E91                     	;# 
  1302     0E92                     	;# 
  1303     0E94                     	;# 
  1304     0E95                     	;# 
  1305     0EA0                     	;# 
  1306     0EA1                     	;# 
  1307     0EA2                     	;# 
  1308     0EA3                     	;# 
  1309     0EA4                     	;# 
  1310     0EA5                     	;# 
  1311     0F0F                     	;# 
  1312     0F10                     	;# 
  1313     0F11                     	;# 
  1314     0F12                     	;# 
  1315     0F13                     	;# 
  1316     0F14                     	;# 
  1317     0F15                     	;# 
  1318     0F16                     	;# 
  1319     0F17                     	;# 
  1320     0F18                     	;# 
  1321     0F19                     	;# 
  1322     0F1A                     	;# 
  1323     0F1B                     	;# 
  1324     0F1C                     	;# 
  1325     0F1D                     	;# 
  1326     0F1E                     	;# 
  1327     0F1F                     	;# 
  1328     0F20                     	;# 
  1329     0F21                     	;# 
  1330     0F22                     	;# 
  1331     0F23                     	;# 
  1332     0F24                     	;# 
  1333     0F25                     	;# 
  1334     0F26                     	;# 
  1335     0F27                     	;# 
  1336     0F28                     	;# 
  1337     0F29                     	;# 
  1338     0F2A                     	;# 
  1339     0F2B                     	;# 
  1340     0F2C                     	;# 
  1341     0F2D                     	;# 
  1342     0F2E                     	;# 
  1343     0F2F                     	;# 
  1344     0F30                     	;# 
  1345     0F31                     	;# 
  1346     0F32                     	;# 
  1347     0F33                     	;# 
  1348     0F34                     	;# 
  1349     0F35                     	;# 
  1350     0F36                     	;# 
  1351     0F37                     	;# 
  1352     0FE4                     	;# 
  1353     0FE5                     	;# 
  1354     0FE6                     	;# 
  1355     0FE7                     	;# 
  1356     0FE8                     	;# 
  1357     0FE9                     	;# 
  1358     0FEA                     	;# 
  1359     0FEB                     	;# 
  1360     0FED                     	;# 
  1361     0FEE                     	;# 
  1362     0FEF                     	;# 
  1363     0000                     	;# 
  1364     0001                     	;# 
  1365     0002                     	;# 
  1366     0003                     	;# 
  1367     0004                     	;# 
  1368     0005                     	;# 
  1369     0006                     	;# 
  1370     0007                     	;# 
  1371     0008                     	;# 
  1372     0009                     	;# 
  1373     000A                     	;# 
  1374     000B                     	;# 
  1375     000C                     	;# 
  1376     000E                     	;# 
  1377     0010                     	;# 
  1378     0011                     	;# 
  1379     0012                     	;# 
  1380     0013                     	;# 
  1381     0014                     	;# 
  1382     0015                     	;# 
  1383     0016                     	;# 
  1384     0016                     	;# 
  1385     0017                     	;# 
  1386     0018                     	;# 
  1387     0019                     	;# 
  1388     001A                     	;# 
  1389     001A                     	;# 
  1390     001B                     	;# 
  1391     001B                     	;# 
  1392     001C                     	;# 
  1393     001D                     	;# 
  1394     001E                     	;# 
  1395     001F                     	;# 
  1396     008C                     	;# 
  1397     008E                     	;# 
  1398     0090                     	;# 
  1399     0091                     	;# 
  1400     0092                     	;# 
  1401     0093                     	;# 
  1402     0094                     	;# 
  1403     0095                     	;# 
  1404     0096                     	;# 
  1405     0098                     	;# 
  1406     0099                     	;# 
  1407     009A                     	;# 
  1408     009B                     	;# 
  1409     009B                     	;# 
  1410     009C                     	;# 
  1411     009D                     	;# 
  1412     009E                     	;# 
  1413     009F                     	;# 
  1414     010C                     	;# 
  1415     010E                     	;# 
  1416     0111                     	;# 
  1417     0112                     	;# 
  1418     0113                     	;# 
  1419     0114                     	;# 
  1420     0115                     	;# 
  1421     0116                     	;# 
  1422     0117                     	;# 
  1423     0118                     	;# 
  1424     0119                     	;# 
  1425     011C                     	;# 
  1426     018C                     	;# 
  1427     018E                     	;# 
  1428     0191                     	;# 
  1429     0191                     	;# 
  1430     0192                     	;# 
  1431     0193                     	;# 
  1432     0193                     	;# 
  1433     0194                     	;# 
  1434     0195                     	;# 
  1435     0196                     	;# 
  1436     0197                     	;# 
  1437     0199                     	;# 
  1438     0199                     	;# 
  1439     0199                     	;# 
  1440     019A                     	;# 
  1441     019A                     	;# 
  1442     019A                     	;# 
  1443     019B                     	;# 
  1444     019B                     	;# 
  1445     019B                     	;# 
  1446     019B                     	;# 
  1447     019B                     	;# 
  1448     019C                     	;# 
  1449     019C                     	;# 
  1450     019C                     	;# 
  1451     019D                     	;# 
  1452     019D                     	;# 
  1453     019D                     	;# 
  1454     019E                     	;# 
  1455     019E                     	;# 
  1456     019E                     	;# 
  1457     019F                     	;# 
  1458     019F                     	;# 
  1459     019F                     	;# 
  1460     019F                     	;# 
  1461     019F                     	;# 
  1462     020C                     	;# 
  1463     020E                     	;# 
  1464     0211                     	;# 
  1465     0211                     	;# 
  1466     0212                     	;# 
  1467     0212                     	;# 
  1468     0213                     	;# 
  1469     0213                     	;# 
  1470     0214                     	;# 
  1471     0214                     	;# 
  1472     0215                     	;# 
  1473     0215                     	;# 
  1474     0215                     	;# 
  1475     0215                     	;# 
  1476     0216                     	;# 
  1477     0216                     	;# 
  1478     0217                     	;# 
  1479     0217                     	;# 
  1480     028C                     	;# 
  1481     028E                     	;# 
  1482     0291                     	;# 
  1483     0291                     	;# 
  1484     0292                     	;# 
  1485     0293                     	;# 
  1486     0294                     	;# 
  1487     0298                     	;# 
  1488     0298                     	;# 
  1489     0299                     	;# 
  1490     029A                     	;# 
  1491     029B                     	;# 
  1492     029E                     	;# 
  1493     030C                     	;# 
  1494     030E                     	;# 
  1495     038C                     	;# 
  1496     038E                     	;# 
  1497     0391                     	;# 
  1498     0392                     	;# 
  1499     0393                     	;# 
  1500     0397                     	;# 
  1501     0398                     	;# 
  1502     0399                     	;# 
  1503     040E                     	;# 
  1504     0413                     	;# 
  1505     0413                     	;# 
  1506     0414                     	;# 
  1507     0414                     	;# 
  1508     0415                     	;# 
  1509     0416                     	;# 
  1510     0417                     	;# 
  1511     0418                     	;# 
  1512     041A                     	;# 
  1513     041A                     	;# 
  1514     041B                     	;# 
  1515     041B                     	;# 
  1516     041C                     	;# 
  1517     041D                     	;# 
  1518     041E                     	;# 
  1519     041F                     	;# 
  1520     0493                     	;# 
  1521     0494                     	;# 
  1522     0495                     	;# 
  1523     0496                     	;# 
  1524     049A                     	;# 
  1525     049B                     	;# 
  1526     049C                     	;# 
  1527     049D                     	;# 
  1528     058C                     	;# 
  1529     058C                     	;# 
  1530     058D                     	;# 
  1531     058E                     	;# 
  1532     058E                     	;# 
  1533     058F                     	;# 
  1534     0590                     	;# 
  1535     0590                     	;# 
  1536     0591                     	;# 
  1537     0592                     	;# 
  1538     0592                     	;# 
  1539     0593                     	;# 
  1540     0594                     	;# 
  1541     0594                     	;# 
  1542     0595                     	;# 
  1543     0596                     	;# 
  1544     0596                     	;# 
  1545     0597                     	;# 
  1546     0598                     	;# 
  1547     0599                     	;# 
  1548     059A                     	;# 
  1549     059B                     	;# 
  1550     059B                     	;# 
  1551     059C                     	;# 
  1552     059D                     	;# 
  1553     060C                     	;# 
  1554     060C                     	;# 
  1555     060D                     	;# 
  1556     060E                     	;# 
  1557     060F                     	;# 
  1558     060F                     	;# 
  1559     0610                     	;# 
  1560     0611                     	;# 
  1561     0612                     	;# 
  1562     0613                     	;# 
  1563     0614                     	;# 
  1564     0617                     	;# 
  1565     0617                     	;# 
  1566     0618                     	;# 
  1567     0619                     	;# 
  1568     061A                     	;# 
  1569     061A                     	;# 
  1570     061B                     	;# 
  1571     061C                     	;# 
  1572     0691                     	;# 
  1573     0692                     	;# 
  1574     0693                     	;# 
  1575     0694                     	;# 
  1576     0695                     	;# 
  1577     0696                     	;# 
  1578     0697                     	;# 
  1579     0699                     	;# 
  1580     069A                     	;# 
  1581     0711                     	;# 
  1582     0712                     	;# 
  1583     0713                     	;# 
  1584     0714                     	;# 
  1585     0715                     	;# 
  1586     0718                     	;# 
  1587     0718                     	;# 
  1588     0719                     	;# 
  1589     071A                     	;# 
  1590     071A                     	;# 
  1591     071B                     	;# 
  1592     071C                     	;# 
  1593     071D                     	;# 
  1594     0791                     	;# 
  1595     0791                     	;# 
  1596     0792                     	;# 
  1597     0793                     	;# 
  1598     0793                     	;# 
  1599     0794                     	;# 
  1600     0795                     	;# 
  1601     0795                     	;# 
  1602     0796                     	;# 
  1603     0797                     	;# 
  1604     0797                     	;# 
  1605     0798                     	;# 
  1606     0799                     	;# 
  1607     079A                     	;# 
  1608     080C                     	;# 
  1609     080C                     	;# 
  1610     080D                     	;# 
  1611     080E                     	;# 
  1612     080E                     	;# 
  1613     080F                     	;# 
  1614     0810                     	;# 
  1615     0810                     	;# 
  1616     0811                     	;# 
  1617     0812                     	;# 
  1618     0812                     	;# 
  1619     0813                     	;# 
  1620     0814                     	;# 
  1621     0815                     	;# 
  1622     0816                     	;# 
  1623     0817                     	;# 
  1624     0818                     	;# 
  1625     0819                     	;# 
  1626     081A                     	;# 
  1627     081A                     	;# 
  1628     081B                     	;# 
  1629     081C                     	;# 
  1630     081C                     	;# 
  1631     081D                     	;# 
  1632     088C                     	;# 
  1633     088D                     	;# 
  1634     088E                     	;# 
  1635     088F                     	;# 
  1636     088F                     	;# 
  1637     0890                     	;# 
  1638     0891                     	;# 
  1639     0892                     	;# 
  1640     0893                     	;# 
  1641     0893                     	;# 
  1642     0894                     	;# 
  1643     0895                     	;# 
  1644     0896                     	;# 
  1645     0897                     	;# 
  1646     0897                     	;# 
  1647     0898                     	;# 
  1648     0899                     	;# 
  1649     0D8C                     	;# 
  1650     0D8C                     	;# 
  1651     0D8D                     	;# 
  1652     0D8E                     	;# 
  1653     0D8F                     	;# 
  1654     0D8F                     	;# 
  1655     0D90                     	;# 
  1656     0D91                     	;# 
  1657     0D92                     	;# 
  1658     0D92                     	;# 
  1659     0D93                     	;# 
  1660     0D94                     	;# 
  1661     0D95                     	;# 
  1662     0D95                     	;# 
  1663     0D96                     	;# 
  1664     0D97                     	;# 
  1665     0D98                     	;# 
  1666     0D99                     	;# 
  1667     0D9A                     	;# 
  1668     0D9B                     	;# 
  1669     0D9C                     	;# 
  1670     0D9D                     	;# 
  1671     0D9E                     	;# 
  1672     0D9E                     	;# 
  1673     0D9F                     	;# 
  1674     0DA0                     	;# 
  1675     0DA1                     	;# 
  1676     0DA1                     	;# 
  1677     0DA2                     	;# 
  1678     0DA3                     	;# 
  1679     0DA4                     	;# 
  1680     0DA4                     	;# 
  1681     0DA5                     	;# 
  1682     0DA6                     	;# 
  1683     0DA7                     	;# 
  1684     0DA7                     	;# 
  1685     0DA8                     	;# 
  1686     0DA9                     	;# 
  1687     0DAA                     	;# 
  1688     0DAB                     	;# 
  1689     0DAC                     	;# 
  1690     0DAD                     	;# 
  1691     0DAE                     	;# 
  1692     0DAF                     	;# 
  1693     0E0F                     	;# 
  1694     0E10                     	;# 
  1695     0E11                     	;# 
  1696     0E12                     	;# 
  1697     0E13                     	;# 
  1698     0E14                     	;# 
  1699     0E15                     	;# 
  1700     0E16                     	;# 
  1701     0E17                     	;# 
  1702     0E18                     	;# 
  1703     0E19                     	;# 
  1704     0E1A                     	;# 
  1705     0E1B                     	;# 
  1706     0E1C                     	;# 
  1707     0E1D                     	;# 
  1708     0E1E                     	;# 
  1709     0E1F                     	;# 
  1710     0E20                     	;# 
  1711     0E21                     	;# 
  1712     0E22                     	;# 
  1713     0E23                     	;# 
  1714     0E24                     	;# 
  1715     0E25                     	;# 
  1716     0E26                     	;# 
  1717     0E27                     	;# 
  1718     0E28                     	;# 
  1719     0E29                     	;# 
  1720     0E2A                     	;# 
  1721     0E2B                     	;# 
  1722     0E2C                     	;# 
  1723     0E2D                     	;# 
  1724     0E2E                     	;# 
  1725     0E90                     	;# 
  1726     0E91                     	;# 
  1727     0E92                     	;# 
  1728     0E94                     	;# 
  1729     0E95                     	;# 
  1730     0EA0                     	;# 
  1731     0EA1                     	;# 
  1732     0EA2                     	;# 
  1733     0EA3                     	;# 
  1734     0EA4                     	;# 
  1735     0EA5                     	;# 
  1736     0F0F                     	;# 
  1737     0F10                     	;# 
  1738     0F11                     	;# 
  1739     0F12                     	;# 
  1740     0F13                     	;# 
  1741     0F14                     	;# 
  1742     0F15                     	;# 
  1743     0F16                     	;# 
  1744     0F17                     	;# 
  1745     0F18                     	;# 
  1746     0F19                     	;# 
  1747     0F1A                     	;# 
  1748     0F1B                     	;# 
  1749     0F1C                     	;# 
  1750     0F1D                     	;# 
  1751     0F1E                     	;# 
  1752     0F1F                     	;# 
  1753     0F20                     	;# 
  1754     0F21                     	;# 
  1755     0F22                     	;# 
  1756     0F23                     	;# 
  1757     0F24                     	;# 
  1758     0F25                     	;# 
  1759     0F26                     	;# 
  1760     0F27                     	;# 
  1761     0F28                     	;# 
  1762     0F29                     	;# 
  1763     0F2A                     	;# 
  1764     0F2B                     	;# 
  1765     0F2C                     	;# 
  1766     0F2D                     	;# 
  1767     0F2E                     	;# 
  1768     0F2F                     	;# 
  1769     0F30                     	;# 
  1770     0F31                     	;# 
  1771     0F32                     	;# 
  1772     0F33                     	;# 
  1773     0F34                     	;# 
  1774     0F35                     	;# 
  1775     0F36                     	;# 
  1776     0F37                     	;# 
  1777     0FE4                     	;# 
  1778     0FE5                     	;# 
  1779     0FE6                     	;# 
  1780     0FE7                     	;# 
  1781     0FE8                     	;# 
  1782     0FE9                     	;# 
  1783     0FEA                     	;# 
  1784     0FEB                     	;# 
  1785     0FED                     	;# 
  1786     0FEE                     	;# 
  1787     0FEF                     	;# 
  1788     0000                     	;# 
  1789     0001                     	;# 
  1790     0002                     	;# 
  1791     0003                     	;# 
  1792     0004                     	;# 
  1793     0005                     	;# 
  1794     0006                     	;# 
  1795     0007                     	;# 
  1796     0008                     	;# 
  1797     0009                     	;# 
  1798     000A                     	;# 
  1799     000B                     	;# 
  1800     000C                     	;# 
  1801     000E                     	;# 
  1802     0010                     	;# 
  1803     0011                     	;# 
  1804     0012                     	;# 
  1805     0013                     	;# 
  1806     0014                     	;# 
  1807     0015                     	;# 
  1808     0016                     	;# 
  1809     0016                     	;# 
  1810     0017                     	;# 
  1811     0018                     	;# 
  1812     0019                     	;# 
  1813     001A                     	;# 
  1814     001A                     	;# 
  1815     001B                     	;# 
  1816     001B                     	;# 
  1817     001C                     	;# 
  1818     001D                     	;# 
  1819     001E                     	;# 
  1820     001F                     	;# 
  1821     008C                     	;# 
  1822     008E                     	;# 
  1823     0090                     	;# 
  1824     0091                     	;# 
  1825     0092                     	;# 
  1826     0093                     	;# 
  1827     0094                     	;# 
  1828     0095                     	;# 
  1829     0096                     	;# 
  1830     0098                     	;# 
  1831     0099                     	;# 
  1832     009A                     	;# 
  1833     009B                     	;# 
  1834     009B                     	;# 
  1835     009C                     	;# 
  1836     009D                     	;# 
  1837     009E                     	;# 
  1838     009F                     	;# 
  1839     010C                     	;# 
  1840     010E                     	;# 
  1841     0111                     	;# 
  1842     0112                     	;# 
  1843     0113                     	;# 
  1844     0114                     	;# 
  1845     0115                     	;# 
  1846     0116                     	;# 
  1847     0117                     	;# 
  1848     0118                     	;# 
  1849     0119                     	;# 
  1850     011C                     	;# 
  1851     018C                     	;# 
  1852     018E                     	;# 
  1853     0191                     	;# 
  1854     0191                     	;# 
  1855     0192                     	;# 
  1856     0193                     	;# 
  1857     0193                     	;# 
  1858     0194                     	;# 
  1859     0195                     	;# 
  1860     0196                     	;# 
  1861     0197                     	;# 
  1862     0199                     	;# 
  1863     0199                     	;# 
  1864     0199                     	;# 
  1865     019A                     	;# 
  1866     019A                     	;# 
  1867     019A                     	;# 
  1868     019B                     	;# 
  1869     019B                     	;# 
  1870     019B                     	;# 
  1871     019B                     	;# 
  1872     019B                     	;# 
  1873     019C                     	;# 
  1874     019C                     	;# 
  1875     019C                     	;# 
  1876     019D                     	;# 
  1877     019D                     	;# 
  1878     019D                     	;# 
  1879     019E                     	;# 
  1880     019E                     	;# 
  1881     019E                     	;# 
  1882     019F                     	;# 
  1883     019F                     	;# 
  1884     019F                     	;# 
  1885     019F                     	;# 
  1886     019F                     	;# 
  1887     020C                     	;# 
  1888     020E                     	;# 
  1889     0211                     	;# 
  1890     0211                     	;# 
  1891     0212                     	;# 
  1892     0212                     	;# 
  1893     0213                     	;# 
  1894     0213                     	;# 
  1895     0214                     	;# 
  1896     0214                     	;# 
  1897     0215                     	;# 
  1898     0215                     	;# 
  1899     0215                     	;# 
  1900     0215                     	;# 
  1901     0216                     	;# 
  1902     0216                     	;# 
  1903     0217                     	;# 
  1904     0217                     	;# 
  1905     028C                     	;# 
  1906     028E                     	;# 
  1907     0291                     	;# 
  1908     0291                     	;# 
  1909     0292                     	;# 
  1910     0293                     	;# 
  1911     0294                     	;# 
  1912     0298                     	;# 
  1913     0298                     	;# 
  1914     0299                     	;# 
  1915     029A                     	;# 
  1916     029B                     	;# 
  1917     029E                     	;# 
  1918     030C                     	;# 
  1919     030E                     	;# 
  1920     038C                     	;# 
  1921     038E                     	;# 
  1922     0391                     	;# 
  1923     0392                     	;# 
  1924     0393                     	;# 
  1925     0397                     	;# 
  1926     0398                     	;# 
  1927     0399                     	;# 
  1928     040E                     	;# 
  1929     0413                     	;# 
  1930     0413                     	;# 
  1931     0414                     	;# 
  1932     0414                     	;# 
  1933     0415                     	;# 
  1934     0416                     	;# 
  1935     0417                     	;# 
  1936     0418                     	;# 
  1937     041A                     	;# 
  1938     041A                     	;# 
  1939     041B                     	;# 
  1940     041B                     	;# 
  1941     041C                     	;# 
  1942     041D                     	;# 
  1943     041E                     	;# 
  1944     041F                     	;# 
  1945     0493                     	;# 
  1946     0494                     	;# 
  1947     0495                     	;# 
  1948     0496                     	;# 
  1949     049A                     	;# 
  1950     049B                     	;# 
  1951     049C                     	;# 
  1952     049D                     	;# 
  1953     058C                     	;# 
  1954     058C                     	;# 
  1955     058D                     	;# 
  1956     058E                     	;# 
  1957     058E                     	;# 
  1958     058F                     	;# 
  1959     0590                     	;# 
  1960     0590                     	;# 
  1961     0591                     	;# 
  1962     0592                     	;# 
  1963     0592                     	;# 
  1964     0593                     	;# 
  1965     0594                     	;# 
  1966     0594                     	;# 
  1967     0595                     	;# 
  1968     0596                     	;# 
  1969     0596                     	;# 
  1970     0597                     	;# 
  1971     0598                     	;# 
  1972     0599                     	;# 
  1973     059A                     	;# 
  1974     059B                     	;# 
  1975     059B                     	;# 
  1976     059C                     	;# 
  1977     059D                     	;# 
  1978     060C                     	;# 
  1979     060C                     	;# 
  1980     060D                     	;# 
  1981     060E                     	;# 
  1982     060F                     	;# 
  1983     060F                     	;# 
  1984     0610                     	;# 
  1985     0611                     	;# 
  1986     0612                     	;# 
  1987     0613                     	;# 
  1988     0614                     	;# 
  1989     0617                     	;# 
  1990     0617                     	;# 
  1991     0618                     	;# 
  1992     0619                     	;# 
  1993     061A                     	;# 
  1994     061A                     	;# 
  1995     061B                     	;# 
  1996     061C                     	;# 
  1997     0691                     	;# 
  1998     0692                     	;# 
  1999     0693                     	;# 
  2000     0694                     	;# 
  2001     0695                     	;# 
  2002     0696                     	;# 
  2003     0697                     	;# 
  2004     0699                     	;# 
  2005     069A                     	;# 
  2006     0711                     	;# 
  2007     0712                     	;# 
  2008     0713                     	;# 
  2009     0714                     	;# 
  2010     0715                     	;# 
  2011     0718                     	;# 
  2012     0718                     	;# 
  2013     0719                     	;# 
  2014     071A                     	;# 
  2015     071A                     	;# 
  2016     071B                     	;# 
  2017     071C                     	;# 
  2018     071D                     	;# 
  2019     0791                     	;# 
  2020     0791                     	;# 
  2021     0792                     	;# 
  2022     0793                     	;# 
  2023     0793                     	;# 
  2024     0794                     	;# 
  2025     0795                     	;# 
  2026     0795                     	;# 
  2027     0796                     	;# 
  2028     0797                     	;# 
  2029     0797                     	;# 
  2030     0798                     	;# 
  2031     0799                     	;# 
  2032     079A                     	;# 
  2033     080C                     	;# 
  2034     080C                     	;# 
  2035     080D                     	;# 
  2036     080E                     	;# 
  2037     080E                     	;# 
  2038     080F                     	;# 
  2039     0810                     	;# 
  2040     0810                     	;# 
  2041     0811                     	;# 
  2042     0812                     	;# 
  2043     0812                     	;# 
  2044     0813                     	;# 
  2045     0814                     	;# 
  2046     0815                     	;# 
  2047     0816                     	;# 
  2048     0817                     	;# 
  2049     0818                     	;# 
  2050     0819                     	;# 
  2051     081A                     	;# 
  2052     081A                     	;# 
  2053     081B                     	;# 
  2054     081C                     	;# 
  2055     081C                     	;# 
  2056     081D                     	;# 
  2057     088C                     	;# 
  2058     088D                     	;# 
  2059     088E                     	;# 
  2060     088F                     	;# 
  2061     088F                     	;# 
  2062     0890                     	;# 
  2063     0891                     	;# 
  2064     0892                     	;# 
  2065     0893                     	;# 
  2066     0893                     	;# 
  2067     0894                     	;# 
  2068     0895                     	;# 
  2069     0896                     	;# 
  2070     0897                     	;# 
  2071     0897                     	;# 
  2072     0898                     	;# 
  2073     0899                     	;# 
  2074     0D8C                     	;# 
  2075     0D8C                     	;# 
  2076     0D8D                     	;# 
  2077     0D8E                     	;# 
  2078     0D8F                     	;# 
  2079     0D8F                     	;# 
  2080     0D90                     	;# 
  2081     0D91                     	;# 
  2082     0D92                     	;# 
  2083     0D92                     	;# 
  2084     0D93                     	;# 
  2085     0D94                     	;# 
  2086     0D95                     	;# 
  2087     0D95                     	;# 
  2088     0D96                     	;# 
  2089     0D97                     	;# 
  2090     0D98                     	;# 
  2091     0D99                     	;# 
  2092     0D9A                     	;# 
  2093     0D9B                     	;# 
  2094     0D9C                     	;# 
  2095     0D9D                     	;# 
  2096     0D9E                     	;# 
  2097     0D9E                     	;# 
  2098     0D9F                     	;# 
  2099     0DA0                     	;# 
  2100     0DA1                     	;# 
  2101     0DA1                     	;# 
  2102     0DA2                     	;# 
  2103     0DA3                     	;# 
  2104     0DA4                     	;# 
  2105     0DA4                     	;# 
  2106     0DA5                     	;# 
  2107     0DA6                     	;# 
  2108     0DA7                     	;# 
  2109     0DA7                     	;# 
  2110     0DA8                     	;# 
  2111     0DA9                     	;# 
  2112     0DAA                     	;# 
  2113     0DAB                     	;# 
  2114     0DAC                     	;# 
  2115     0DAD                     	;# 
  2116     0DAE                     	;# 
  2117     0DAF                     	;# 
  2118     0E0F                     	;# 
  2119     0E10                     	;# 
  2120     0E11                     	;# 
  2121     0E12                     	;# 
  2122     0E13                     	;# 
  2123     0E14                     	;# 
  2124     0E15                     	;# 
  2125     0E16                     	;# 
  2126     0E17                     	;# 
  2127     0E18                     	;# 
  2128     0E19                     	;# 
  2129     0E1A                     	;# 
  2130     0E1B                     	;# 
  2131     0E1C                     	;# 
  2132     0E1D                     	;# 
  2133     0E1E                     	;# 
  2134     0E1F                     	;# 
  2135     0E20                     	;# 
  2136     0E21                     	;# 
  2137     0E22                     	;# 
  2138     0E23                     	;# 
  2139     0E24                     	;# 
  2140     0E25                     	;# 
  2141     0E26                     	;# 
  2142     0E27                     	;# 
  2143     0E28                     	;# 
  2144     0E29                     	;# 
  2145     0E2A                     	;# 
  2146     0E2B                     	;# 
  2147     0E2C                     	;# 
  2148     0E2D                     	;# 
  2149     0E2E                     	;# 
  2150     0E90                     	;# 
  2151     0E91                     	;# 
  2152     0E92                     	;# 
  2153     0E94                     	;# 
  2154     0E95                     	;# 
  2155     0EA0                     	;# 
  2156     0EA1                     	;# 
  2157     0EA2                     	;# 
  2158     0EA3                     	;# 
  2159     0EA4                     	;# 
  2160     0EA5                     	;# 
  2161     0F0F                     	;# 
  2162     0F10                     	;# 
  2163     0F11                     	;# 
  2164     0F12                     	;# 
  2165     0F13                     	;# 
  2166     0F14                     	;# 
  2167     0F15                     	;# 
  2168     0F16                     	;# 
  2169     0F17                     	;# 
  2170     0F18                     	;# 
  2171     0F19                     	;# 
  2172     0F1A                     	;# 
  2173     0F1B                     	;# 
  2174     0F1C                     	;# 
  2175     0F1D                     	;# 
  2176     0F1E                     	;# 
  2177     0F1F                     	;# 
  2178     0F20                     	;# 
  2179     0F21                     	;# 
  2180     0F22                     	;# 
  2181     0F23                     	;# 
  2182     0F24                     	;# 
  2183     0F25                     	;# 
  2184     0F26                     	;# 
  2185     0F27                     	;# 
  2186     0F28                     	;# 
  2187     0F29                     	;# 
  2188     0F2A                     	;# 
  2189     0F2B                     	;# 
  2190     0F2C                     	;# 
  2191     0F2D                     	;# 
  2192     0F2E                     	;# 
  2193     0F2F                     	;# 
  2194     0F30                     	;# 
  2195     0F31                     	;# 
  2196     0F32                     	;# 
  2197     0F33                     	;# 
  2198     0F34                     	;# 
  2199     0F35                     	;# 
  2200     0F36                     	;# 
  2201     0F37                     	;# 
  2202     0FE4                     	;# 
  2203     0FE5                     	;# 
  2204     0FE6                     	;# 
  2205     0FE7                     	;# 
  2206     0FE8                     	;# 
  2207     0FE9                     	;# 
  2208     0FEA                     	;# 
  2209     0FEB                     	;# 
  2210     0FED                     	;# 
  2211     0FEE                     	;# 
  2212     0FEF                     	;# 
  2213     0000                     	;# 
  2214     0001                     	;# 
  2215     0002                     	;# 
  2216     0003                     	;# 
  2217     0004                     	;# 
  2218     0005                     	;# 
  2219     0006                     	;# 
  2220     0007                     	;# 
  2221     0008                     	;# 
  2222     0009                     	;# 
  2223     000A                     	;# 
  2224     000B                     	;# 
  2225     000C                     	;# 
  2226     000E                     	;# 
  2227     0010                     	;# 
  2228     0011                     	;# 
  2229     0012                     	;# 
  2230     0013                     	;# 
  2231     0014                     	;# 
  2232     0015                     	;# 
  2233     0016                     	;# 
  2234     0016                     	;# 
  2235     0017                     	;# 
  2236     0018                     	;# 
  2237     0019                     	;# 
  2238     001A                     	;# 
  2239     001A                     	;# 
  2240     001B                     	;# 
  2241     001B                     	;# 
  2242     001C                     	;# 
  2243     001D                     	;# 
  2244     001E                     	;# 
  2245     001F                     	;# 
  2246     008C                     	;# 
  2247     008E                     	;# 
  2248     0090                     	;# 
  2249     0091                     	;# 
  2250     0092                     	;# 
  2251     0093                     	;# 
  2252     0094                     	;# 
  2253     0095                     	;# 
  2254     0096                     	;# 
  2255     0098                     	;# 
  2256     0099                     	;# 
  2257     009A                     	;# 
  2258     009B                     	;# 
  2259     009B                     	;# 
  2260     009C                     	;# 
  2261     009D                     	;# 
  2262     009E                     	;# 
  2263     009F                     	;# 
  2264     010C                     	;# 
  2265     010E                     	;# 
  2266     0111                     	;# 
  2267     0112                     	;# 
  2268     0113                     	;# 
  2269     0114                     	;# 
  2270     0115                     	;# 
  2271     0116                     	;# 
  2272     0117                     	;# 
  2273     0118                     	;# 
  2274     0119                     	;# 
  2275     011C                     	;# 
  2276     018C                     	;# 
  2277     018E                     	;# 
  2278     0191                     	;# 
  2279     0191                     	;# 
  2280     0192                     	;# 
  2281     0193                     	;# 
  2282     0193                     	;# 
  2283     0194                     	;# 
  2284     0195                     	;# 
  2285     0196                     	;# 
  2286     0197                     	;# 
  2287     0199                     	;# 
  2288     0199                     	;# 
  2289     0199                     	;# 
  2290     019A                     	;# 
  2291     019A                     	;# 
  2292     019A                     	;# 
  2293     019B                     	;# 
  2294     019B                     	;# 
  2295     019B                     	;# 
  2296     019B                     	;# 
  2297     019B                     	;# 
  2298     019C                     	;# 
  2299     019C                     	;# 
  2300     019C                     	;# 
  2301     019D                     	;# 
  2302     019D                     	;# 
  2303     019D                     	;# 
  2304     019E                     	;# 
  2305     019E                     	;# 
  2306     019E                     	;# 
  2307     019F                     	;# 
  2308     019F                     	;# 
  2309     019F                     	;# 
  2310     019F                     	;# 
  2311     019F                     	;# 
  2312     020C                     	;# 
  2313     020E                     	;# 
  2314     0211                     	;# 
  2315     0211                     	;# 
  2316     0212                     	;# 
  2317     0212                     	;# 
  2318     0213                     	;# 
  2319     0213                     	;# 
  2320     0214                     	;# 
  2321     0214                     	;# 
  2322     0215                     	;# 
  2323     0215                     	;# 
  2324     0215                     	;# 
  2325     0215                     	;# 
  2326     0216                     	;# 
  2327     0216                     	;# 
  2328     0217                     	;# 
  2329     0217                     	;# 
  2330     028C                     	;# 
  2331     028E                     	;# 
  2332     0291                     	;# 
  2333     0291                     	;# 
  2334     0292                     	;# 
  2335     0293                     	;# 
  2336     0294                     	;# 
  2337     0298                     	;# 
  2338     0298                     	;# 
  2339     0299                     	;# 
  2340     029A                     	;# 
  2341     029B                     	;# 
  2342     029E                     	;# 
  2343     030C                     	;# 
  2344     030E                     	;# 
  2345     038C                     	;# 
  2346     038E                     	;# 
  2347     0391                     	;# 
  2348     0392                     	;# 
  2349     0393                     	;# 
  2350     0397                     	;# 
  2351     0398                     	;# 
  2352     0399                     	;# 
  2353     040E                     	;# 
  2354     0413                     	;# 
  2355     0413                     	;# 
  2356     0414                     	;# 
  2357     0414                     	;# 
  2358     0415                     	;# 
  2359     0416                     	;# 
  2360     0417                     	;# 
  2361     0418                     	;# 
  2362     041A                     	;# 
  2363     041A                     	;# 
  2364     041B                     	;# 
  2365     041B                     	;# 
  2366     041C                     	;# 
  2367     041D                     	;# 
  2368     041E                     	;# 
  2369     041F                     	;# 
  2370     0493                     	;# 
  2371     0494                     	;# 
  2372     0495                     	;# 
  2373     0496                     	;# 
  2374     049A                     	;# 
  2375     049B                     	;# 
  2376     049C                     	;# 
  2377     049D                     	;# 
  2378     058C                     	;# 
  2379     058C                     	;# 
  2380     058D                     	;# 
  2381     058E                     	;# 
  2382     058E                     	;# 
  2383     058F                     	;# 
  2384     0590                     	;# 
  2385     0590                     	;# 
  2386     0591                     	;# 
  2387     0592                     	;# 
  2388     0592                     	;# 
  2389     0593                     	;# 
  2390     0594                     	;# 
  2391     0594                     	;# 
  2392     0595                     	;# 
  2393     0596                     	;# 
  2394     0596                     	;# 
  2395     0597                     	;# 
  2396     0598                     	;# 
  2397     0599                     	;# 
  2398     059A                     	;# 
  2399     059B                     	;# 
  2400     059B                     	;# 
  2401     059C                     	;# 
  2402     059D                     	;# 
  2403     060C                     	;# 
  2404     060C                     	;# 
  2405     060D                     	;# 
  2406     060E                     	;# 
  2407     060F                     	;# 
  2408     060F                     	;# 
  2409     0610                     	;# 
  2410     0611                     	;# 
  2411     0612                     	;# 
  2412     0613                     	;# 
  2413     0614                     	;# 
  2414     0617                     	;# 
  2415     0617                     	;# 
  2416     0618                     	;# 
  2417     0619                     	;# 
  2418     061A                     	;# 
  2419     061A                     	;# 
  2420     061B                     	;# 
  2421     061C                     	;# 
  2422     0691                     	;# 
  2423     0692                     	;# 
  2424     0693                     	;# 
  2425     0694                     	;# 
  2426     0695                     	;# 
  2427     0696                     	;# 
  2428     0697                     	;# 
  2429     0699                     	;# 
  2430     069A                     	;# 
  2431     0711                     	;# 
  2432     0712                     	;# 
  2433     0713                     	;# 
  2434     0714                     	;# 
  2435     0715                     	;# 
  2436     0718                     	;# 
  2437     0718                     	;# 
  2438     0719                     	;# 
  2439     071A                     	;# 
  2440     071A                     	;# 
  2441     071B                     	;# 
  2442     071C                     	;# 
  2443     071D                     	;# 
  2444     0791                     	;# 
  2445     0791                     	;# 
  2446     0792                     	;# 
  2447     0793                     	;# 
  2448     0793                     	;# 
  2449     0794                     	;# 
  2450     0795                     	;# 
  2451     0795                     	;# 
  2452     0796                     	;# 
  2453     0797                     	;# 
  2454     0797                     	;# 
  2455     0798                     	;# 
  2456     0799                     	;# 
  2457     079A                     	;# 
  2458     080C                     	;# 
  2459     080C                     	;# 
  2460     080D                     	;# 
  2461     080E                     	;# 
  2462     080E                     	;# 
  2463     080F                     	;# 
  2464     0810                     	;# 
  2465     0810                     	;# 
  2466     0811                     	;# 
  2467     0812                     	;# 
  2468     0812                     	;# 
  2469     0813                     	;# 
  2470     0814                     	;# 
  2471     0815                     	;# 
  2472     0816                     	;# 
  2473     0817                     	;# 
  2474     0818                     	;# 
  2475     0819                     	;# 
  2476     081A                     	;# 
  2477     081A                     	;# 
  2478     081B                     	;# 
  2479     081C                     	;# 
  2480     081C                     	;# 
  2481     081D                     	;# 
  2482     088C                     	;# 
  2483     088D                     	;# 
  2484     088E                     	;# 
  2485     088F                     	;# 
  2486     088F                     	;# 
  2487     0890                     	;# 
  2488     0891                     	;# 
  2489     0892                     	;# 
  2490     0893                     	;# 
  2491     0893                     	;# 
  2492     0894                     	;# 
  2493     0895                     	;# 
  2494     0896                     	;# 
  2495     0897                     	;# 
  2496     0897                     	;# 
  2497     0898                     	;# 
  2498     0899                     	;# 
  2499     0D8C                     	;# 
  2500     0D8C                     	;# 
  2501     0D8D                     	;# 
  2502     0D8E                     	;# 
  2503     0D8F                     	;# 
  2504     0D8F                     	;# 
  2505     0D90                     	;# 
  2506     0D91                     	;# 
  2507     0D92                     	;# 
  2508     0D92                     	;# 
  2509     0D93                     	;# 
  2510     0D94                     	;# 
  2511     0D95                     	;# 
  2512     0D95                     	;# 
  2513     0D96                     	;# 
  2514     0D97                     	;# 
  2515     0D98                     	;# 
  2516     0D99                     	;# 
  2517     0D9A                     	;# 
  2518     0D9B                     	;# 
  2519     0D9C                     	;# 
  2520     0D9D                     	;# 
  2521     0D9E                     	;# 
  2522     0D9E                     	;# 
  2523     0D9F                     	;# 
  2524     0DA0                     	;# 
  2525     0DA1                     	;# 
  2526     0DA1                     	;# 
  2527     0DA2                     	;# 
  2528     0DA3                     	;# 
  2529     0DA4                     	;# 
  2530     0DA4                     	;# 
  2531     0DA5                     	;# 
  2532     0DA6                     	;# 
  2533     0DA7                     	;# 
  2534     0DA7                     	;# 
  2535     0DA8                     	;# 
  2536     0DA9                     	;# 
  2537     0DAA                     	;# 
  2538     0DAB                     	;# 
  2539     0DAC                     	;# 
  2540     0DAD                     	;# 
  2541     0DAE                     	;# 
  2542     0DAF                     	;# 
  2543     0E0F                     	;# 
  2544     0E10                     	;# 
  2545     0E11                     	;# 
  2546     0E12                     	;# 
  2547     0E13                     	;# 
  2548     0E14                     	;# 
  2549     0E15                     	;# 
  2550     0E16                     	;# 
  2551     0E17                     	;# 
  2552     0E18                     	;# 
  2553     0E19                     	;# 
  2554     0E1A                     	;# 
  2555     0E1B                     	;# 
  2556     0E1C                     	;# 
  2557     0E1D                     	;# 
  2558     0E1E                     	;# 
  2559     0E1F                     	;# 
  2560     0E20                     	;# 
  2561     0E21                     	;# 
  2562     0E22                     	;# 
  2563     0E23                     	;# 
  2564     0E24                     	;# 
  2565     0E25                     	;# 
  2566     0E26                     	;# 
  2567     0E27                     	;# 
  2568     0E28                     	;# 
  2569     0E29                     	;# 
  2570     0E2A                     	;# 
  2571     0E2B                     	;# 
  2572     0E2C                     	;# 
  2573     0E2D                     	;# 
  2574     0E2E                     	;# 
  2575     0E90                     	;# 
  2576     0E91                     	;# 
  2577     0E92                     	;# 
  2578     0E94                     	;# 
  2579     0E95                     	;# 
  2580     0EA0                     	;# 
  2581     0EA1                     	;# 
  2582     0EA2                     	;# 
  2583     0EA3                     	;# 
  2584     0EA4                     	;# 
  2585     0EA5                     	;# 
  2586     0F0F                     	;# 
  2587     0F10                     	;# 
  2588     0F11                     	;# 
  2589     0F12                     	;# 
  2590     0F13                     	;# 
  2591     0F14                     	;# 
  2592     0F15                     	;# 
  2593     0F16                     	;# 
  2594     0F17                     	;# 
  2595     0F18                     	;# 
  2596     0F19                     	;# 
  2597     0F1A                     	;# 
  2598     0F1B                     	;# 
  2599     0F1C                     	;# 
  2600     0F1D                     	;# 
  2601     0F1E                     	;# 
  2602     0F1F                     	;# 
  2603     0F20                     	;# 
  2604     0F21                     	;# 
  2605     0F22                     	;# 
  2606     0F23                     	;# 
  2607     0F24                     	;# 
  2608     0F25                     	;# 
  2609     0F26                     	;# 
  2610     0F27                     	;# 
  2611     0F28                     	;# 
  2612     0F29                     	;# 
  2613     0F2A                     	;# 
  2614     0F2B                     	;# 
  2615     0F2C                     	;# 
  2616     0F2D                     	;# 
  2617     0F2E                     	;# 
  2618     0F2F                     	;# 
  2619     0F30                     	;# 
  2620     0F31                     	;# 
  2621     0F32                     	;# 
  2622     0F33                     	;# 
  2623     0F34                     	;# 
  2624     0F35                     	;# 
  2625     0F36                     	;# 
  2626     0F37                     	;# 
  2627     0FE4                     	;# 
  2628     0FE5                     	;# 
  2629     0FE6                     	;# 
  2630     0FE7                     	;# 
  2631     0FE8                     	;# 
  2632     0FE9                     	;# 
  2633     0FEA                     	;# 
  2634     0FEB                     	;# 
  2635     0FED                     	;# 
  2636     0FEE                     	;# 
  2637     0FEF                     	;# 
  2638                           
  2639                           	psect	idataBANK1
  2640     0801                     __pidataBANK1:
  2641                           
  2642                           ;initializer for _pg2
  2643     0801  3443               	retlw	low (STR_5| (0+32768))
  2644     0802  3498               	retlw	high (STR_5| (0+32768))
  2645                           
  2646                           ;initializer for _pg1
  2647     0803  343F               	retlw	low (STR_4| (0+32768))
  2648     0804  3498               	retlw	high (STR_4| (0+32768))
  2649                           
  2650                           ;initializer for _str2
  2651     0805  3400               	retlw	low (STR_3| (0+32768))
  2652     0806  3498               	retlw	high (STR_3| (0+32768))
  2653                           
  2654                           ;initializer for _str1
  2655     0807  3425               	retlw	low (STR_2| (0+32768))
  2656     0808  3498               	retlw	high (STR_2| (0+32768))
  2657                           
  2658                           ;initializer for _str0
  2659     0809  3413               	retlw	low (STR_1| (0+32768))
  2660     080A  3498               	retlw	high (STR_1| (0+32768))
  2661                           
  2662                           ;initializer for _backlight_val
  2663     080B  3408               	retlw	8
  2664                           
  2665                           	psect	nvBANK1
  2666     00E9                     __pnvBANK1:
  2667     00E9                     _ini:
  2668     00E9                     	ds	1
  2669     0019                     _T1GCONbits	set	25
  2670     0018                     _T1CONbits	set	24
  2671     0016                     _TMR1L	set	22
  2672     0017                     _TMR1H	set	23
  2673     0010                     _PIR1bits	set	16
  2674     000B                     _INTCONbits	set	11
  2675     0090                     _PIE1bits	set	144
  2676     008C                     _TRISAbits	set	140
  2677     009B                     _ADRESL	set	155
  2678     009C                     _ADRESH	set	156
  2679     009D                     _ADCON0bits	set	157
  2680     009E                     _ADCON1bits	set	158
  2681     0099                     _OSCCONbits	set	153
  2682     008E                     _TRISCbits	set	142
  2683     010C                     _LATAbits	set	268
  2684     0117                     _FVRCONbits	set	279
  2685     010E                     _LATC	set	270
  2686     010E                     _LATCbits	set	270
  2687     018C                     _ANSELAbits	set	396
  2688     018E                     _ANSELCbits	set	398
  2689     020C                     _WPUAbits	set	524
  2690     0216                     _SSP1CON2bits	set	534
  2691     0211                     _SSP1BUF	set	529
  2692     0214                     _SSP1STAT	set	532
  2693     0216                     _SSP1CON2	set	534
  2694     0212                     _SSPADD	set	530
  2695     0215                     _SSP1CON1bits	set	533
  2696     0214                     _SSP1STATbits	set	532
  2697     028E                     _ODCONCbits	set	654
  2698     0391                     _IOCAPbits	set	913
  2699     1C9D                     _IOCAF5	set	7325
  2700     0E13                     _T1GPPS	set	3603
  2701     0E20                     _SSPCLKPPS	set	3616
  2702     0E21                     _SSPDATPPS	set	3617
  2703     0EA1                     _RC1PPS	set	3745
  2704     0EA0                     _RC0PPS	set	3744
  2705                           
  2706                           	psect	stringtext1
  2707     1800                     __pstringtext1:
  2708     1800                     STR_3:
  2709     1800  3446               	retlw	70	;'F'
  2710     1801  3452               	retlw	82	;'R'
  2711     1802  3445               	retlw	69	;'E'
  2712     1803  3451               	retlw	81	;'Q'
  2713     1804  3420               	retlw	32	;' '
  2714     1805  344C               	retlw	76	;'L'
  2715     1806  3455               	retlw	85	;'U'
  2716     1807  3445               	retlw	69	;'E'
  2717     1808  3420               	retlw	32	;' '
  2718     1809  3453               	retlw	83	;'S'
  2719     180A  3455               	retlw	85	;'U'
  2720     180B  3452               	retlw	82	;'R'
  2721     180C  3420               	retlw	32	;' '
  2722     180D  3452               	retlw	82	;'R'
  2723     180E  3441               	retlw	65	;'A'
  2724     180F  3432               	retlw	50	;'2'
  2725     1810  3420               	retlw	32	;' '
  2726     1811  343A               	retlw	58	;':'
  2727     1812  3400               	retlw	0
  2728                           
  2729                           	psect	stringtext2
  2730     1813                     __pstringtext2:
  2731     1813                     STR_1:
  2732     1813  3454               	retlw	84	;'T'
  2733     1814  3445               	retlw	69	;'E'
  2734     1815  344E               	retlw	78	;'N'
  2735     1816  3453               	retlw	83	;'S'
  2736     1817  3449               	retlw	73	;'I'
  2737     1818  344F               	retlw	79	;'O'
  2738     1819  344E               	retlw	78	;'N'
  2739     181A  3420               	retlw	32	;' '
  2740     181B  3453               	retlw	83	;'S'
  2741     181C  3455               	retlw	85	;'U'
  2742     181D  3452               	retlw	82	;'R'
  2743     181E  3420               	retlw	32	;' '
  2744     181F  3452               	retlw	82	;'R'
  2745     1820  3443               	retlw	67	;'C'
  2746     1821  3432               	retlw	50	;'2'
  2747     1822  3420               	retlw	32	;' '
  2748     1823  343A               	retlw	58	;':'
  2749     1824  3400               	retlw	0
  2750                           
  2751                           	psect	stringtext3
  2752     1825                     __pstringtext3:
  2753     1825                     STR_2:
  2754     1825  3454               	retlw	84	;'T'
  2755     1826  3445               	retlw	69	;'E'
  2756     1827  344E               	retlw	78	;'N'
  2757     1828  3453               	retlw	83	;'S'
  2758     1829  3449               	retlw	73	;'I'
  2759     182A  344F               	retlw	79	;'O'
  2760     182B  344E               	retlw	78	;'N'
  2761     182C  3420               	retlw	32	;' '
  2762     182D  3453               	retlw	83	;'S'
  2763     182E  3455               	retlw	85	;'U'
  2764     182F  3452               	retlw	82	;'R'
  2765     1830  3420               	retlw	32	;' '
  2766     1831  3452               	retlw	82	;'R'
  2767     1832  3443               	retlw	67	;'C'
  2768     1833  3433               	retlw	51	;'3'
  2769     1834  3420               	retlw	32	;' '
  2770     1835  343A               	retlw	58	;':'
  2771     1836  3400               	retlw	0
  2772                           
  2773                           	psect	stringtext4
  2774     1837                     __pstringtext4:
  2775     1837                     STR_6:
  2776     1837  3458               	retlw	88	;'X'
  2777     1838  3458               	retlw	88	;'X'
  2778     1839  342C               	retlw	44	;','
  2779     183A  3458               	retlw	88	;'X'
  2780     183B  3458               	retlw	88	;'X'
  2781     183C  3448               	retlw	72	;'H'
  2782     183D  347A               	retlw	122	;'z'
  2783     183E  3400               	retlw	0
  2784                           
  2785                           	psect	stringtext5
  2786     183F                     __pstringtext5:
  2787     183F                     STR_4:
  2788     183F  3431               	retlw	49	;'1'
  2789     1840  342F               	retlw	47	;'/'
  2790     1841  3432               	retlw	50	;'2'
  2791     1842  3400               	retlw	0
  2792                           
  2793                           	psect	stringtext6
  2794     1843                     __pstringtext6:
  2795     1843                     STR_5:
  2796     1843  3432               	retlw	50	;'2'
  2797     1844  342F               	retlw	47	;'/'
  2798     1845  3432               	retlw	50	;'2'
  2799     1846  3400               	retlw	0
  2800                           
  2801                           	psect	stringtext7
  2802     0000                     __pstringtext7:
  2803                           
  2804                           	psect	cinit
  2805     005D                     start_initialization:	
  2806                           ; #config settings
  2807                           
  2808     005D                     __initialization:
  2809                           
  2810                           ; Initialize objects allocated to BANK1
  2811     005D  3001               	movlw	low __pidataBANK1
  2812     005E  0084               	movwf	4
  2813     005F  3088               	movlw	(high __pidataBANK1)| (0+128)
  2814     0060  0085               	movwf	5
  2815     0061  30DE               	movlw	low __pdataBANK1
  2816     0062  0086               	movwf	6
  2817     0063  3000               	movlw	high __pdataBANK1
  2818     0064  0087               	movwf	7
  2819     0065  300B               	movlw	11
  2820     0066  3196  264D  3180   	fcall	init_ram
  2821                           
  2822                           ; Clear objects allocated to BITCOMMON
  2823     0069  01FC               	clrf	(__pbitbssCOMMON/(0+8))& (0+127)
  2824                           
  2825                           ; Clear objects allocated to BANK1
  2826     006A  30CC               	movlw	low __pbssBANK1
  2827     006B  0084               	movwf	4
  2828     006C  3000               	movlw	high __pbssBANK1
  2829     006D  0085               	movwf	5
  2830     006E  3012               	movlw	18
  2831     006F  3196  2647  3180   	fcall	clear_ram0
  2832     0072                     end_of_initialization:	
  2833                           ;End of C runtime variable initialization code
  2834                           
  2835     0072                     __end_of__initialization:
  2836     0072  107E               	bcf	int$flags,0	;clear compiler interrupt flag (level 1)
  2837     0073  0020               	movlb	0
  2838     0074  318A  2AC4         	ljmp	_main	;jump to C main() function
  2839                           
  2840                           	psect	bitbssCOMMON
  2841     03E0                     __pbitbssCOMMON:
  2842     03E0                     _RS:
  2843     03E0                     	ds	1
  2844                           
  2845                           	psect	bssBANK1
  2846     00CC                     __pbssBANK1:
  2847     00CC                     _freq:
  2848     00CC                     	ds	4
  2849     00D0                     _temps:
  2850     00D0                     	ds	4
  2851     00D4                     _mesure:
  2852     00D4                     	ds	1
  2853     00D5                     _tmr1l:
  2854     00D5                     	ds	1
  2855     00D6                     _tmr1h:
  2856     00D6                     	ds	1
  2857     00D7                     _overFsave:
  2858     00D7                     	ds	1
  2859     00D8                     _overFlow:
  2860     00D8                     	ds	1
  2861     00D9                     _gate:
  2862     00D9                     	ds	1
  2863     00DA                     _pgpres:
  2864     00DA                     	ds	1
  2865     00DB                     _pg:
  2866     00DB                     	ds	1
  2867     00DC                     _tmr1:
  2868     00DC                     	ds	2
  2869                           
  2870                           	psect	dataBANK1
  2871     00DE                     __pdataBANK1:
  2872     00DE                     _pg2:
  2873     00DE                     	ds	2
  2874     00E0                     _pg1:
  2875     00E0                     	ds	2
  2876     00E2                     _str2:
  2877     00E2                     	ds	2
  2878     00E4                     _str1:
  2879     00E4                     	ds	2
  2880     00E6                     _str0:
  2881     00E6                     	ds	2
  2882     00E8                     _backlight_val:
  2883     00E8                     	ds	1
  2884                           
  2885                           	psect	inittext
  2886     164D                     init_ram:
  2887     164D  00FE               	movwf	btemp
  2888     164E                     initloop:
  2889     164E  0012               	moviw fsr0++
  2890     164F  001E               	movwi fsr1++
  2891     1650  0BFE               	decfsz	btemp,f
  2892     1651  2E4E               	goto	initloop
  2893     1652  3400               	retlw	0
  2894                           
  2895                           	psect	clrtext
  2896     1647                     clear_ram0:	
  2897                           ;	Called with FSR0 containing the base address, and
  2898                           ;	WREG with the size to clear
  2899                           
  2900     1647  0064               	clrwdt	;clear the watchdog before getting into this loop
  2901     1648                     clrloop0:
  2902     1648  0180               	clrf	0	;clear RAM location pointed to by FSR
  2903     1649  3101               	addfsr 0,1
  2904     164A  0B89               	decfsz	9,f	;Have we reached the end of clearing yet?
  2905     164B  2E48               	goto	clrloop0	;have we reached the end yet?
  2906     164C  3400               	retlw	0	;all done for this memory range, return
  2907                           
  2908                           	psect	cstackBANK1
  2909     00A0                     __pcstackBANK1:
  2910     00A0                     ?___flsub:
  2911     00A0                     ___flsub@a:	
  2912                           ; 4 bytes @ 0x0
  2913                           
  2914                           
  2915                           ; 4 bytes @ 0x0
  2916     00A0                     	ds	4
  2917     00A4                     ___flsub@b:
  2918                           
  2919                           ; 4 bytes @ 0x4
  2920     00A4                     	ds	4
  2921     00A8                     ?___fltol:
  2922     00A8                     ___fltol@f1:	
  2923                           ; 4 bytes @ 0x8
  2924                           
  2925                           
  2926                           ; 4 bytes @ 0x8
  2927     00A8                     	ds	4
  2928     00AC                     ??___fltol:
  2929                           
  2930                           ; 1 bytes @ 0xC
  2931     00AC                     	ds	4
  2932     00B0                     ?_ADC_Afficher_Tension:
  2933     00B0                     ?_FREQ_Afficher:	
  2934                           ; 1 bytes @ 0x10
  2935                           
  2936     00B0                     ADC_Afficher_Tension@MesF:	
  2937                           ; 1 bytes @ 0x10
  2938                           
  2939     00B0                     FREQ_Afficher@FRE:	
  2940                           ; 4 bytes @ 0x10
  2941                           
  2942                           
  2943                           ; 4 bytes @ 0x10
  2944     00B0                     	ds	4
  2945     00B4                     ??_ADC_Afficher_Tension:
  2946     00B4                     ??_FREQ_Afficher:	
  2947                           ; 1 bytes @ 0x14
  2948                           
  2949                           
  2950                           ; 1 bytes @ 0x14
  2951     00B4                     	ds	4
  2952     00B8                     _ADC_Afficher_Tension$1346:
  2953     00B8                     _FREQ_Afficher$1348:	
  2954                           ; 4 bytes @ 0x18
  2955                           
  2956                           
  2957                           ; 4 bytes @ 0x18
  2958     00B8                     	ds	4
  2959     00BC                     ADC_Afficher_Tension@mil:
  2960     00BC                     FREQ_Afficher@XX:	
  2961                           ; 1 bytes @ 0x1C
  2962                           
  2963                           
  2964                           ; 2 bytes @ 0x1C
  2965     00BC                     	ds	1
  2966     00BD                     _ADC_Afficher_Tension$1345:
  2967                           
  2968                           ; 4 bytes @ 0x1D
  2969     00BD                     	ds	1
  2970     00BE                     FREQ_Afficher@cen:
  2971                           
  2972                           ; 1 bytes @ 0x1E
  2973     00BE                     	ds	1
  2974     00BF                     _FREQ_Afficher$1347:
  2975                           
  2976                           ; 4 bytes @ 0x1F
  2977     00BF                     	ds	2
  2978     00C1                     ADC_Afficher_Tension@cen:
  2979                           
  2980                           ; 1 bytes @ 0x21
  2981     00C1                     	ds	1
  2982     00C2                     ADC_Afficher_Tension@dix:
  2983                           
  2984                           ; 1 bytes @ 0x22
  2985     00C2                     	ds	1
  2986     00C3                     ADC_Afficher_Tension@dec:
  2987     00C3                     FREQ_Afficher@dix:	
  2988                           ; 1 bytes @ 0x23
  2989                           
  2990                           
  2991                           ; 1 bytes @ 0x23
  2992     00C3                     	ds	1
  2993     00C4                     ADC_Afficher_Tension@LCD_ADD:
  2994     00C4                     FREQ_Afficher@dec:	
  2995                           ; 1 bytes @ 0x24
  2996                           
  2997                           
  2998                           ; 1 bytes @ 0x24
  2999     00C4                     	ds	1
  3000     00C5                     FREQ_Afficher@d1z:
  3001                           
  3002                           ; 1 bytes @ 0x25
  3003     00C5                     	ds	1
  3004     00C6                     FREQ_Afficher@LCD_ADD:
  3005                           
  3006                           ; 1 bytes @ 0x26
  3007     00C6                     	ds	1
  3008     00C7                     ??_main:
  3009                           
  3010                           ; 1 bytes @ 0x27
  3011     00C7                     	ds	5
  3012                           
  3013                           	psect	cstackCOMMON
  3014     0070                     __pcstackCOMMON:
  3015     0070                     ?_IntDisable:
  3016     0070                     ?_IIC_Init:	
  3017                           ; 1 bytes @ 0x0
  3018                           
  3019     0070                     ?_ADC_Init:	
  3020                           ; 1 bytes @ 0x0
  3021                           
  3022     0070                     ?_FREQ_init:	
  3023                           ; 1 bytes @ 0x0
  3024                           
  3025     0070                     ?_LCD_Begin:	
  3026                           ; 1 bytes @ 0x0
  3027                           
  3028     0070                     ?_IntEnable:	
  3029                           ; 1 bytes @ 0x0
  3030                           
  3031     0070                     ?_LCD_Clr:	
  3032                           ; 1 bytes @ 0x0
  3033                           
  3034     0070                     ?_ISR:	
  3035                           ; 1 bytes @ 0x0
  3036                           
  3037     0070                     ??_ISR:	
  3038                           ; 1 bytes @ 0x0
  3039                           
  3040     0070                     ?_main:	
  3041                           ; 1 bytes @ 0x0
  3042                           
  3043                           
  3044                           ; 1 bytes @ 0x0
  3045     0070                     	ds	1
  3046     0071                     ?___flge:
  3047     0071                     ??_IntDisable:	
  3048                           ; 1 bit 
  3049                           
  3050     0071                     ??_IIC_Init:	
  3051                           ; 1 bytes @ 0x1
  3052                           
  3053     0071                     ??_ADC_Init:	
  3054                           ; 1 bytes @ 0x1
  3055                           
  3056     0071                     ??_FREQ_init:	
  3057                           ; 1 bytes @ 0x1
  3058                           
  3059     0071                     ??_IntEnable:	
  3060                           ; 1 bytes @ 0x1
  3061                           
  3062     0071                     ?_IIC_Emis:	
  3063                           ; 1 bytes @ 0x1
  3064                           
  3065     0071                     ?__Umul8_16:	
  3066                           ; 1 bytes @ 0x1
  3067                           
  3068     0071                     ?___lmul:	
  3069                           ; 2 bytes @ 0x1
  3070                           
  3071     0071                     ?___xxtofl:	
  3072                           ; 4 bytes @ 0x1
  3073                           
  3074     0071                     IIC_Emis@R_W:	
  3075                           ; 4 bytes @ 0x1
  3076                           
  3077     0071                     __Umul8_16@multiplicand:	
  3078                           ; 1 bytes @ 0x1
  3079                           
  3080     0071                     ___lmul@multiplier:	
  3081                           ; 1 bytes @ 0x1
  3082                           
  3083     0071                     ___flge@ff1:	
  3084                           ; 4 bytes @ 0x1
  3085                           
  3086     0071                     ___xxtofl@val:	
  3087                           ; 4 bytes @ 0x1
  3088                           
  3089                           
  3090                           ; 4 bytes @ 0x1
  3091     0071                     	ds	1
  3092     0072                     IIC_Emis@data:
  3093                           
  3094                           ; 1 bytes @ 0x2
  3095     0072                     	ds	1
  3096     0073                     ??__Umul8_16:
  3097     0073                     ??_IIC_Emis:	
  3098                           ; 1 bytes @ 0x3
  3099                           
  3100     0073                     IIC_Emis@adr:	
  3101                           ; 1 bytes @ 0x3
  3102                           
  3103                           
  3104                           ; 1 bytes @ 0x3
  3105     0073                     	ds	1
  3106     0074                     ?_LCD_Envoi:
  3107     0074                     ?_afficherCaractereLCD:	
  3108                           ; 1 bytes @ 0x4
  3109                           
  3110     0074                     LCD_Envoi@data:	
  3111                           ; 1 bytes @ 0x4
  3112                           
  3113     0074                     afficherCaractereLCD@donnee:	
  3114                           ; 1 bytes @ 0x4
  3115                           
  3116                           
  3117                           ; 1 bytes @ 0x4
  3118     0074                     	ds	1
  3119     0075                     ??_LCD_Envoi:
  3120     0075                     ??_afficherCaractereLCD:	
  3121                           ; 1 bytes @ 0x5
  3122                           
  3123     0075                     ??___xxtofl:	
  3124                           ; 1 bytes @ 0x5
  3125                           
  3126     0075                     __Umul8_16@product:	
  3127                           ; 1 bytes @ 0x5
  3128                           
  3129     0075                     ___lmul@multiplicand:	
  3130                           ; 2 bytes @ 0x5
  3131                           
  3132     0075                     ___flge@ff2:	
  3133                           ; 4 bytes @ 0x5
  3134                           
  3135                           
  3136                           ; 4 bytes @ 0x5
  3137     0075                     	ds	1
  3138     0076                     LCD_Envoi@add:
  3139     0076                     afficherCaractereLCD@donneeH:	
  3140                           ; 1 bytes @ 0x6
  3141                           
  3142                           
  3143                           ; 1 bytes @ 0x6
  3144     0076                     	ds	1
  3145     0077                     ?_LCD_Print:
  3146     0077                     ?_instructionLCD:	
  3147                           ; 1 bytes @ 0x7
  3148                           
  3149     0077                     instructionLCD@inst:	
  3150                           ; 1 bytes @ 0x7
  3151                           
  3152     0077                     afficherCaractereLCD@donneeL:	
  3153                           ; 1 bytes @ 0x7
  3154                           
  3155     0077                     LCD_Print@Str:	
  3156                           ; 1 bytes @ 0x7
  3157                           
  3158     0077                     __Umul8_16@word_mpld:	
  3159                           ; 2 bytes @ 0x7
  3160                           
  3161                           
  3162                           ; 2 bytes @ 0x7
  3163     0077                     	ds	1
  3164     0078                     ??_instructionLCD:
  3165     0078                     afficherCaractereLCD@adresse:	
  3166                           ; 1 bytes @ 0x8
  3167                           
  3168                           
  3169                           ; 1 bytes @ 0x8
  3170     0078                     	ds	1
  3171     0079                     ??_LCD_Print:
  3172     0079                     ??___lmul:	
  3173                           ; 1 bytes @ 0x9
  3174                           
  3175     0079                     instructionLCD@add:	
  3176                           ; 1 bytes @ 0x9
  3177                           
  3178     0079                     __Umul8_16@multiplier:	
  3179                           ; 1 bytes @ 0x9
  3180                           
  3181                           
  3182                           ; 1 bytes @ 0x9
  3183     0079                     	ds	1
  3184     007A                     ??_LCD_Begin:
  3185     007A                     ??_LCD_Clr:	
  3186                           ; 1 bytes @ 0xA
  3187                           
  3188     007A                     ?_LCD_SetCursor:	
  3189                           ; 1 bytes @ 0xA
  3190                           
  3191     007A                     ??_ADC_Conv:	
  3192                           ; 1 bytes @ 0xA
  3193                           
  3194     007A                     ??___flsub:	
  3195                           ; 1 bytes @ 0xA
  3196                           
  3197     007A                     LCD_SetCursor@col:	
  3198                           ; 1 bytes @ 0xA
  3199                           
  3200     007A                     LCD_Clr@add:	
  3201                           ; 1 bytes @ 0xA
  3202                           
  3203     007A                     ___fltol@sign1:	
  3204                           ; 1 bytes @ 0xA
  3205                           
  3206                           
  3207                           ; 1 bytes @ 0xA
  3208     007A                     	ds	1
  3209     007B                     LCD_Begin@add:
  3210     007B                     LCD_SetCursor@lig:	
  3211                           ; 1 bytes @ 0xB
  3212                           
  3213     007B                     ___fltol@exp1:	
  3214                           ; 1 bytes @ 0xB
  3215                           
  3216                           
  3217                           ; 1 bytes @ 0xB
  3218     007B                     	ds	1
  3219                           
  3220                           	psect	cstackBANK0
  3221     0020                     __pcstackBANK0:
  3222     0020                     ??_LCD_SetCursor:
  3223     0020                     ??___flge:	
  3224                           ; 1 bytes @ 0x0
  3225                           
  3226     0020                     LCD_Print@add:	
  3227                           ; 1 bytes @ 0x0
  3228                           
  3229     0020                     ___xxtofl@sign:	
  3230                           ; 1 bytes @ 0x0
  3231                           
  3232     0020                     ___lmul@product:	
  3233                           ; 1 bytes @ 0x0
  3234                           
  3235                           
  3236                           ; 4 bytes @ 0x0
  3237     0020                     	ds	1
  3238     0021                     LCD_Print@i:
  3239     0021                     ___xxtofl@exp:	
  3240                           ; 1 bytes @ 0x1
  3241                           
  3242                           
  3243                           ; 1 bytes @ 0x1
  3244     0021                     	ds	1
  3245     0022                     LCD_SetCursor@add:
  3246     0022                     ___xxtofl@arg:	
  3247                           ; 1 bytes @ 0x2
  3248                           
  3249                           
  3250                           ; 4 bytes @ 0x2
  3251     0022                     	ds	4
  3252     0026                     ?___fladd:
  3253     0026                     ___fladd@b:	
  3254                           ; 4 bytes @ 0x6
  3255                           
  3256                           
  3257                           ; 4 bytes @ 0x6
  3258     0026                     	ds	4
  3259     002A                     ___fladd@a:
  3260                           
  3261                           ; 4 bytes @ 0xA
  3262     002A                     	ds	4
  3263     002E                     ??___fladd:
  3264                           
  3265                           ; 1 bytes @ 0xE
  3266     002E                     	ds	8
  3267     0036                     ___fladd@signs:
  3268                           
  3269                           ; 1 bytes @ 0x16
  3270     0036                     	ds	1
  3271     0037                     ___fladd@aexp:
  3272                           
  3273                           ; 1 bytes @ 0x17
  3274     0037                     	ds	1
  3275     0038                     ___fladd@bexp:
  3276                           
  3277                           ; 1 bytes @ 0x18
  3278     0038                     	ds	1
  3279     0039                     ___fladd@grs:
  3280                           
  3281                           ; 1 bytes @ 0x19
  3282     0039                     	ds	1
  3283     003A                     ?___flmul:
  3284     003A                     ___flmul@b:	
  3285                           ; 4 bytes @ 0x1A
  3286                           
  3287                           
  3288                           ; 4 bytes @ 0x1A
  3289     003A                     	ds	4
  3290     003E                     ___flmul@a:
  3291                           
  3292                           ; 4 bytes @ 0x1E
  3293     003E                     	ds	4
  3294     0042                     ??___flmul:
  3295                           
  3296                           ; 1 bytes @ 0x22
  3297     0042                     	ds	5
  3298     0047                     ___flmul@sign:
  3299                           
  3300                           ; 1 bytes @ 0x27
  3301     0047                     	ds	1
  3302     0048                     ___flmul@grs:
  3303                           
  3304                           ; 4 bytes @ 0x28
  3305     0048                     	ds	4
  3306     004C                     ___flmul@aexp:
  3307                           
  3308                           ; 1 bytes @ 0x2C
  3309     004C                     	ds	1
  3310     004D                     ___flmul@bexp:
  3311                           
  3312                           ; 1 bytes @ 0x2D
  3313     004D                     	ds	1
  3314     004E                     ___flmul@prod:
  3315                           
  3316                           ; 4 bytes @ 0x2E
  3317     004E                     	ds	4
  3318     0052                     ___flmul@temp:
  3319                           
  3320                           ; 2 bytes @ 0x32
  3321     0052                     	ds	2
  3322     0054                     ?_ADC_Conv:
  3323     0054                     ?___fldiv:	
  3324                           ; 4 bytes @ 0x34
  3325                           
  3326     0054                     ___fldiv@a:	
  3327                           ; 4 bytes @ 0x34
  3328                           
  3329                           
  3330                           ; 4 bytes @ 0x34
  3331     0054                     	ds	4
  3332     0058                     ADC_Conv@Tens:
  3333     0058                     ___fldiv@b:	
  3334                           ; 4 bytes @ 0x38
  3335                           
  3336                           
  3337                           ; 4 bytes @ 0x38
  3338     0058                     	ds	4
  3339     005C                     ??___fldiv:
  3340     005C                     ADC_Conv@Broche:	
  3341                           ; 1 bytes @ 0x3C
  3342                           
  3343                           
  3344                           ; 1 bytes @ 0x3C
  3345     005C                     	ds	1
  3346     005D                     ADC_Conv@result:
  3347                           
  3348                           ; 2 bytes @ 0x3D
  3349     005D                     	ds	4
  3350     0061                     ___fldiv@rem:
  3351                           
  3352                           ; 4 bytes @ 0x41
  3353     0061                     	ds	4
  3354     0065                     ___fldiv@sign:
  3355                           
  3356                           ; 1 bytes @ 0x45
  3357     0065                     	ds	1
  3358     0066                     ___fldiv@new_exp:
  3359                           
  3360                           ; 2 bytes @ 0x46
  3361     0066                     	ds	2
  3362     0068                     ___fldiv@grs:
  3363                           
  3364                           ; 4 bytes @ 0x48
  3365     0068                     	ds	4
  3366     006C                     ___fldiv@bexp:
  3367                           
  3368                           ; 1 bytes @ 0x4C
  3369     006C                     	ds	1
  3370     006D                     ___fldiv@aexp:
  3371                           
  3372                           ; 1 bytes @ 0x4D
  3373     006D                     	ds	1
  3374                           
  3375                           	psect	maintext
  3376     0AC4                     __pmaintext:	
  3377 ;;
  3378 ;;Main: autosize = 0, tempsize = 5, incstack = 0, save=0
  3379 ;;
  3380 ;; *************** function _main *****************
  3381 ;; Defined at:
  3382 ;;		line 69 in file "main.c"
  3383 ;; Parameters:    Size  Location     Type
  3384 ;;		None
  3385 ;; Auto vars:     Size  Location     Type
  3386 ;;		None
  3387 ;; Return value:  Size  Location     Type
  3388 ;;                  1    wreg      void 
  3389 ;; Registers used:
  3390 ;;		wreg, fsr0l, fsr0h, status,2, status,0, pclath, cstack
  3391 ;; Tracked objects:
  3392 ;;		On entry : B1F/0
  3393 ;;		On exit  : 0/0
  3394 ;;		Unchanged: 0/0
  3395 ;; Data sizes:     COMMON   BANK0   BANK1   BANK2   BANK3   BANK4   BANK5   BANK6   BANK7   BANK8   BANK9  BANK10  BANK1
      +1  BANK12
  3396 ;;      Params:         0       0       0       0       0       0       0       0       0       0       0       0       
      +0       0
  3397 ;;      Locals:         0       0       0       0       0       0       0       0       0       0       0       0       
      +0       0
  3398 ;;      Temps:          0       0       5       0       0       0       0       0       0       0       0       0       
      +0       0
  3399 ;;      Totals:         0       0       5       0       0       0       0       0       0       0       0       0       
      +0       0
  3400 ;;Total ram usage:        5 bytes
  3401 ;; Hardware stack levels required when called: 5
  3402 ;; This function calls:
  3403 ;;		_ADC_Afficher_Tension
  3404 ;;		_ADC_Conv
  3405 ;;		_ADC_Init
  3406 ;;		_FREQ_Afficher
  3407 ;;		_FREQ_init
  3408 ;;		_IIC_Init
  3409 ;;		_IntDisable
  3410 ;;		_IntEnable
  3411 ;;		_LCD_Begin
  3412 ;;		_LCD_Clr
  3413 ;;		_LCD_Print
  3414 ;;		_LCD_SetCursor
  3415 ;;		___fladd
  3416 ;;		___fldiv
  3417 ;;		___flmul
  3418 ;;		___lmul
  3419 ;;		___xxtofl
  3420 ;; This function is called by:
  3421 ;;		Startup code after reset
  3422 ;; This function uses a non-reentrant model
  3423 ;;
  3424                           
  3425     0AC4                     _main:	
  3426                           ;psect for function _main
  3427                           
  3428     0AC4                     l3103:	
  3429                           ;incstack = 0
  3430                           ; Regs used in _main: [wreg-fsr0h+status,2+status,0+pclath+cstack]
  3431                           
  3432                           
  3433                           ;main.c: 70:     ini = 1;
  3434     0AC4  0021               	movlb	1	; select bank1
  3435     0AC5  01E9               	clrf	_ini^(0+128)
  3436     0AC6  0AE9               	incf	_ini^(0+128),f
  3437     0AC7                     l3105:
  3438                           
  3439                           ;main.c: 72:         if(ini == 1){
  3440     0AC7  0021               	movlb	1	; select bank1
  3441     0AC8  0369               	decf	_ini^(0+128),w
  3442     0AC9  1D03               	btfss	3,2
  3443     0ACA  2ACC               	goto	u4031
  3444     0ACB  2ACD               	goto	u4030
  3445     0ACC                     u4031:
  3446     0ACC  2AE2               	goto	l3119
  3447     0ACD                     u4030:
  3448     0ACD                     l3107:
  3449                           
  3450                           ;main.c: 75:             IntDisable();
  3451     0ACD  3180  2002  318A   	fcall	_IntDisable
  3452     0AD0                     l3109:
  3453                           
  3454                           ;main.c: 76:             IIC_Init();
  3455     0AD0  3196  26DA  318A   	fcall	_IIC_Init
  3456     0AD3                     l3111:
  3457                           
  3458                           ;main.c: 77:             ADC_Init();
  3459     0AD3  3196  265B  318A   	fcall	_ADC_Init
  3460     0AD6                     l3113:
  3461                           
  3462                           ;main.c: 78:             FREQ_init();
  3463     0AD6  3196  26B3  318A   	fcall	_FREQ_init
  3464     0AD9                     l3115:
  3465                           
  3466                           ;main.c: 82:             LCD_Begin(0x20);
  3467     0AD9  3020               	movlw	32
  3468     0ADA  3189  2113  318A   	fcall	_LCD_Begin
  3469                           
  3470                           ;main.c: 84:             IntEnable();
  3471     0ADD  3187  27FD  318A   	fcall	_IntEnable
  3472     0AE0                     l3117:
  3473                           
  3474                           ;main.c: 86:             TRISCbits.TRISC4 = 0;
  3475     0AE0  0021               	movlb	1	; select bank1
  3476     0AE1  120E               	bcf	14,4	;volatile
  3477     0AE2                     l3119:
  3478                           
  3479                           ;main.c: 88:         ini = 0;
  3480     0AE2  01E9               	clrf	_ini^(0+128)
  3481     0AE3                     l3121:
  3482                           
  3483                           ;main.c: 90:         if(mesure){
  3484     0AE3  0854               	movf	_mesure^(0+128),w
  3485     0AE4  1903               	btfsc	3,2
  3486     0AE5  2AE7               	goto	u4041
  3487     0AE6  2AE8               	goto	u4040
  3488     0AE7                     u4041:
  3489     0AE7  2B81               	goto	l3129
  3490     0AE8                     u4040:
  3491     0AE8                     l3123:
  3492                           
  3493                           ;main.c: 91:             tmr1 = ((int)tmr1h << 8) + (int)tmr1l;
  3494     0AE8  0855               	movf	_tmr1l^(0+128),w
  3495     0AE9  00C7               	movwf	??_main^(0+128)
  3496     0AEA  01C8               	clrf	(??_main^(0+128)+1)
  3497     0AEB  0856               	movf	_tmr1h^(0+128),w
  3498     0AEC  00C9               	movwf	(??_main+2)^(0+128)
  3499     0AED  01CA               	clrf	((??_main+2)^(0+128)+1)
  3500     0AEE  0849               	movf	(??_main+2)^(0+128),w
  3501     0AEF  00CA               	movwf	((??_main+2)^(0+128)+1)
  3502     0AF0  01C9               	clrf	(??_main+2)^(0+128)
  3503     0AF1  0847               	movf	??_main^(0+128),w
  3504     0AF2  0749               	addwf	(??_main+2)^(0+128),w
  3505     0AF3  00DC               	movwf	_tmr1^(0+128)
  3506     0AF4  0848               	movf	(??_main+1)^(0+128),w
  3507     0AF5  3D4A               	addwfc	(??_main+3)^(0+128),w
  3508     0AF6  00DD               	movwf	(_tmr1+1)^(0+128)
  3509     0AF7                     l3125:
  3510                           
  3511                           ;main.c: 92:             temps = (unsigned long)((overFsave) * 65535);
  3512     0AF7  0857               	movf	_overFsave^(0+128),w
  3513     0AF8  00C7               	movwf	??_main^(0+128)
  3514     0AF9  01C8               	clrf	(??_main^(0+128)+1)
  3515     0AFA  01C9               	clrf	(??_main^(0+128)+2)
  3516     0AFB  01CA               	clrf	(??_main^(0+128)+3)
  3517     0AFC  084A               	movf	(??_main+3)^(0+128),w
  3518     0AFD  00F4               	movwf	___lmul@multiplier+3
  3519     0AFE  0849               	movf	(??_main+2)^(0+128),w
  3520     0AFF  00F3               	movwf	___lmul@multiplier+2
  3521     0B00  0848               	movf	(??_main+1)^(0+128),w
  3522     0B01  00F2               	movwf	___lmul@multiplier+1
  3523     0B02  0847               	movf	??_main^(0+128),w
  3524     0B03  00F1               	movwf	___lmul@multiplier
  3525     0B04  3000               	movlw	0
  3526     0B05  00F8               	movwf	___lmul@multiplicand+3
  3527     0B06  3000               	movlw	0
  3528     0B07  00F7               	movwf	___lmul@multiplicand+2
  3529     0B08  30FF               	movlw	255
  3530     0B09  00F6               	movwf	___lmul@multiplicand+1
  3531     0B0A  30FF               	movlw	255
  3532     0B0B  00F5               	movwf	___lmul@multiplicand
  3533     0B0C  3197  2788  318A   	fcall	___lmul
  3534     0B0F  0874               	movf	?___lmul+3,w
  3535     0B10  0021               	movlb	1	; select bank1
  3536     0B11  00D3               	movwf	(_temps+3)^(0+128)
  3537     0B12  0873               	movf	?___lmul+2,w
  3538     0B13  00D2               	movwf	(_temps+2)^(0+128)
  3539     0B14  0872               	movf	?___lmul+1,w
  3540     0B15  00D1               	movwf	(_temps+1)^(0+128)
  3541     0B16  0871               	movf	?___lmul,w
  3542     0B17  00D0               	movwf	_temps^(0+128)
  3543     0B18                     l3127:
  3544                           
  3545                           ;main.c: 93:             freq = 1./((8./(float)2000000UL) * ((float)tmr1 + (float)temps)
      +                          );
  3546     0B18  3036               	movlw	54
  3547     0B19  0020               	movlb	0	; select bank0
  3548     0B1A  00BD               	movwf	___flmul@b+3
  3549     0B1B  3086               	movlw	134
  3550     0B1C  00BC               	movwf	___flmul@b+2
  3551     0B1D  3037               	movlw	55
  3552     0B1E  00BB               	movwf	___flmul@b+1
  3553     0B1F  30BD               	movlw	189
  3554     0B20  00BA               	movwf	___flmul@b
  3555     0B21  0021               	movlb	1	; select bank1
  3556     0B22  0853               	movf	(_temps+3)^(0+128),w
  3557     0B23  00F4               	movwf	___xxtofl@val+3
  3558     0B24  0852               	movf	(_temps+2)^(0+128),w
  3559     0B25  00F3               	movwf	___xxtofl@val+2
  3560     0B26  0851               	movf	(_temps+1)^(0+128),w
  3561     0B27  00F2               	movwf	___xxtofl@val+1
  3562     0B28  0850               	movf	_temps^(0+128),w
  3563     0B29  00F1               	movwf	___xxtofl@val
  3564     0B2A  3000               	movlw	0
  3565     0B2B  318A  2219  318A   	fcall	___xxtofl
  3566     0B2E  0874               	movf	?___xxtofl+3,w
  3567     0B2F  0020               	movlb	0	; select bank0
  3568     0B30  00A9               	movwf	___fladd@b+3
  3569     0B31  0873               	movf	?___xxtofl+2,w
  3570     0B32  00A8               	movwf	___fladd@b+2
  3571     0B33  0872               	movf	?___xxtofl+1,w
  3572     0B34  00A7               	movwf	___fladd@b+1
  3573     0B35  0871               	movf	?___xxtofl,w
  3574     0B36  00A6               	movwf	___fladd@b
  3575     0B37  0021               	movlb	1	; select bank1
  3576     0B38  085C               	movf	_tmr1^(0+128),w
  3577     0B39  00F1               	movwf	___xxtofl@val
  3578     0B3A  085D               	movf	(_tmr1+1)^(0+128),w
  3579     0B3B  00F2               	movwf	___xxtofl@val+1
  3580     0B3C  0D89               	rlf	9,f
  3581     0B3D  3B89               	subwfb	9,f
  3582     0B3E  0989               	comf	9,f
  3583     0B3F  00F3               	movwf	___xxtofl@val+2
  3584     0B40  00F4               	movwf	___xxtofl@val+3
  3585     0B41  3001               	movlw	1
  3586     0B42  318A  2219  318A   	fcall	___xxtofl
  3587     0B45  0874               	movf	?___xxtofl+3,w
  3588     0B46  0020               	movlb	0	; select bank0
  3589     0B47  00AD               	movwf	___fladd@a+3
  3590     0B48  0873               	movf	?___xxtofl+2,w
  3591     0B49  00AC               	movwf	___fladd@a+2
  3592     0B4A  0872               	movf	?___xxtofl+1,w
  3593     0B4B  00AB               	movwf	___fladd@a+1
  3594     0B4C  0871               	movf	?___xxtofl,w
  3595     0B4D  00AA               	movwf	___fladd@a
  3596     0B4E  318D  25F8  318A   	fcall	___fladd
  3597     0B51  0020               	movlb	0	; select bank0
  3598     0B52  0829               	movf	?___fladd+3,w
  3599     0B53  00C1               	movwf	___flmul@a+3
  3600     0B54  0828               	movf	?___fladd+2,w
  3601     0B55  00C0               	movwf	___flmul@a+2
  3602     0B56  0827               	movf	?___fladd+1,w
  3603     0B57  00BF               	movwf	___flmul@a+1
  3604     0B58  0826               	movf	?___fladd,w
  3605     0B59  00BE               	movwf	___flmul@a
  3606     0B5A  3183  235B  318A   	fcall	___flmul
  3607     0B5D  0020               	movlb	0	; select bank0
  3608     0B5E  083D               	movf	?___flmul+3,w
  3609     0B5F  00D7               	movwf	___fldiv@a+3
  3610     0B60  083C               	movf	?___flmul+2,w
  3611     0B61  00D6               	movwf	___fldiv@a+2
  3612     0B62  083B               	movf	?___flmul+1,w
  3613     0B63  00D5               	movwf	___fldiv@a+1
  3614     0B64  083A               	movf	?___flmul,w
  3615     0B65  00D4               	movwf	___fldiv@a
  3616     0B66  303F               	movlw	63
  3617     0B67  00DB               	movwf	___fldiv@b+3
  3618     0B68  3080               	movlw	128
  3619     0B69  00DA               	movwf	___fldiv@b+2
  3620     0B6A  3000               	movlw	0
  3621     0B6B  00D9               	movwf	___fldiv@b+1
  3622     0B6C  3000               	movlw	0
  3623     0B6D  00D8               	movwf	___fldiv@b
  3624     0B6E  318C  244E  318A   	fcall	___fldiv
  3625     0B71  0020               	movlb	0	; select bank0
  3626     0B72  0857               	movf	?___fldiv+3,w
  3627     0B73  0021               	movlb	1	; select bank1
  3628     0B74  00CF               	movwf	(_freq+3)^(0+128)
  3629     0B75  0020               	movlb	0	; select bank0
  3630     0B76  0856               	movf	?___fldiv+2,w
  3631     0B77  0021               	movlb	1	; select bank1
  3632     0B78  00CE               	movwf	(_freq+2)^(0+128)
  3633     0B79  0020               	movlb	0	; select bank0
  3634     0B7A  0855               	movf	?___fldiv+1,w
  3635     0B7B  0021               	movlb	1	; select bank1
  3636     0B7C  00CD               	movwf	(_freq+1)^(0+128)
  3637     0B7D  0020               	movlb	0	; select bank0
  3638     0B7E  0854               	movf	?___fldiv,w
  3639     0B7F  0021               	movlb	1	; select bank1
  3640     0B80  00CC               	movwf	_freq^(0+128)
  3641     0B81                     l3129:
  3642                           
  3643                           ;main.c: 96:         if (pg != pgpres){
  3644     0B81  085B               	movf	_pg^(0+128),w
  3645     0B82  065A               	xorwf	_pgpres^(0+128),w
  3646     0B83  1903               	skipnz
  3647     0B84  2B86               	goto	u4051
  3648     0B85  2B87               	goto	u4050
  3649     0B86                     u4051:
  3650     0B86  2B8B               	goto	l3133
  3651     0B87                     u4050:
  3652     0B87                     l3131:
  3653                           
  3654                           ;main.c: 97:             LCD_Clr(0x20);
  3655     0B87  3020               	movlw	32
  3656     0B88  3196  2653  318A   	fcall	_LCD_Clr
  3657     0B8B                     l3133:
  3658                           
  3659                           ;main.c: 99:         if (pg == 0){
  3660     0B8B  0021               	movlb	1	; select bank1
  3661     0B8C  085B               	movf	_pg^(0+128),w
  3662     0B8D  1D03               	btfss	3,2
  3663     0B8E  2B90               	goto	u4061
  3664     0B8F  2B91               	goto	u4060
  3665     0B90                     u4061:
  3666     0B90  2C02               	goto	l3149
  3667     0B91                     u4060:
  3668     0B91                     l3135:
  3669                           
  3670                           ;main.c: 101:             LCD_SetCursor(0x20, 1,1);
  3671     0B91  01FA               	clrf	LCD_SetCursor@col
  3672     0B92  0AFA               	incf	LCD_SetCursor@col,f
  3673     0B93  01FB               	clrf	LCD_SetCursor@lig
  3674     0B94  0AFB               	incf	LCD_SetCursor@lig,f
  3675     0B95  3020               	movlw	32
  3676     0B96  3187  27C6  318A   	fcall	_LCD_SetCursor
  3677                           
  3678                           ;main.c: 102:             LCD_Print(0x20, str0);
  3679     0B99  3013               	movlw	low (STR_1| (0+32768))
  3680     0B9A  00F7               	movwf	LCD_Print@Str
  3681     0B9B  3098               	movlw	high (STR_1| (0+32768))
  3682     0B9C  00F8               	movwf	LCD_Print@Str+1
  3683     0B9D  3020               	movlw	32
  3684     0B9E  3188  200C  318A   	fcall	_LCD_Print
  3685                           
  3686                           ;main.c: 103:             LCD_SetCursor(0x20, 8,2);
  3687     0BA1  3008               	movlw	8
  3688     0BA2  00FA               	movwf	LCD_SetCursor@col
  3689     0BA3  3002               	movlw	2
  3690     0BA4  00FB               	movwf	LCD_SetCursor@lig
  3691     0BA5  3020               	movlw	32
  3692     0BA6  3187  27C6  318A   	fcall	_LCD_SetCursor
  3693     0BA9                     l3137:
  3694                           
  3695                           ;main.c: 104:             ADC_Afficher_Tension(0x20, ADC_Conv(0b00110));
  3696     0BA9  3006               	movlw	6
  3697     0BAA  3188  2053  318A   	fcall	_ADC_Conv
  3698     0BAD  0020               	movlb	0	; select bank0
  3699     0BAE  0857               	movf	?_ADC_Conv+3,w
  3700     0BAF  0021               	movlb	1	; select bank1
  3701     0BB0  00B3               	movwf	(ADC_Afficher_Tension@MesF+3)^(0+128)
  3702     0BB1  0020               	movlb	0	; select bank0
  3703     0BB2  0856               	movf	?_ADC_Conv+2,w
  3704     0BB3  0021               	movlb	1	; select bank1
  3705     0BB4  00B2               	movwf	(ADC_Afficher_Tension@MesF+2)^(0+128)
  3706     0BB5  0020               	movlb	0	; select bank0
  3707     0BB6  0855               	movf	?_ADC_Conv+1,w
  3708     0BB7  0021               	movlb	1	; select bank1
  3709     0BB8  00B1               	movwf	(ADC_Afficher_Tension@MesF+1)^(0+128)
  3710     0BB9  0020               	movlb	0	; select bank0
  3711     0BBA  0854               	movf	?_ADC_Conv,w
  3712     0BBB  0021               	movlb	1	; select bank1
  3713     0BBC  00B0               	movwf	ADC_Afficher_Tension@MesF^(0+128)
  3714     0BBD  3020               	movlw	32
  3715     0BBE  3185  2596  318A   	fcall	_ADC_Afficher_Tension
  3716     0BC1                     l3139:
  3717                           
  3718                           ;main.c: 108:             LCD_SetCursor(0x20, 1,3);
  3719     0BC1  01FA               	clrf	LCD_SetCursor@col
  3720     0BC2  0AFA               	incf	LCD_SetCursor@col,f
  3721     0BC3  3003               	movlw	3
  3722     0BC4  00FB               	movwf	LCD_SetCursor@lig
  3723     0BC5  3020               	movlw	32
  3724     0BC6  3187  27C6  318A   	fcall	_LCD_SetCursor
  3725     0BC9                     l3141:
  3726                           
  3727                           ;main.c: 109:             LCD_Print(0x20, str1);
  3728     0BC9  3025               	movlw	low (STR_2| (0+32768))
  3729     0BCA  00F7               	movwf	LCD_Print@Str
  3730     0BCB  3098               	movlw	high (STR_2| (0+32768))
  3731     0BCC  00F8               	movwf	LCD_Print@Str+1
  3732     0BCD  3020               	movlw	32
  3733     0BCE  3188  200C  318A   	fcall	_LCD_Print
  3734     0BD1                     l3143:
  3735                           
  3736                           ;main.c: 110:             LCD_SetCursor(0x20, 8,4);
  3737     0BD1  3008               	movlw	8
  3738     0BD2  00FA               	movwf	LCD_SetCursor@col
  3739     0BD3  3004               	movlw	4
  3740     0BD4  00FB               	movwf	LCD_SetCursor@lig
  3741     0BD5  3020               	movlw	32
  3742     0BD6  3187  27C6  318A   	fcall	_LCD_SetCursor
  3743                           
  3744                           ;main.c: 111:             ADC_Afficher_Tension(0x20, ADC_Conv(0b00111));
  3745     0BD9  3007               	movlw	7
  3746     0BDA  3188  2053  318A   	fcall	_ADC_Conv
  3747     0BDD  0020               	movlb	0	; select bank0
  3748     0BDE  0857               	movf	?_ADC_Conv+3,w
  3749     0BDF  0021               	movlb	1	; select bank1
  3750     0BE0  00B3               	movwf	(ADC_Afficher_Tension@MesF+3)^(0+128)
  3751     0BE1  0020               	movlb	0	; select bank0
  3752     0BE2  0856               	movf	?_ADC_Conv+2,w
  3753     0BE3  0021               	movlb	1	; select bank1
  3754     0BE4  00B2               	movwf	(ADC_Afficher_Tension@MesF+2)^(0+128)
  3755     0BE5  0020               	movlb	0	; select bank0
  3756     0BE6  0855               	movf	?_ADC_Conv+1,w
  3757     0BE7  0021               	movlb	1	; select bank1
  3758     0BE8  00B1               	movwf	(ADC_Afficher_Tension@MesF+1)^(0+128)
  3759     0BE9  0020               	movlb	0	; select bank0
  3760     0BEA  0854               	movf	?_ADC_Conv,w
  3761     0BEB  0021               	movlb	1	; select bank1
  3762     0BEC  00B0               	movwf	ADC_Afficher_Tension@MesF^(0+128)
  3763     0BED  3020               	movlw	32
  3764     0BEE  3185  2596  318A   	fcall	_ADC_Afficher_Tension
  3765     0BF1                     l3145:
  3766                           
  3767                           ;main.c: 112:             LCD_SetCursor(0x20, 18,4);
  3768     0BF1  3012               	movlw	18
  3769     0BF2  00FA               	movwf	LCD_SetCursor@col
  3770     0BF3  3004               	movlw	4
  3771     0BF4  00FB               	movwf	LCD_SetCursor@lig
  3772     0BF5  3020               	movlw	32
  3773     0BF6  3187  27C6  318A   	fcall	_LCD_SetCursor
  3774     0BF9                     l3147:
  3775                           
  3776                           ;main.c: 113:             LCD_Print(0x20, pg1);
  3777     0BF9  303F               	movlw	low (STR_4| (0+32768))
  3778     0BFA  00F7               	movwf	LCD_Print@Str
  3779     0BFB  3098               	movlw	high (STR_4| (0+32768))
  3780     0BFC  00F8               	movwf	LCD_Print@Str+1
  3781     0BFD  3020               	movlw	32
  3782     0BFE  3188  200C  318A   	fcall	_LCD_Print
  3783                           
  3784                           ;main.c: 115:         } else if (pg == 1){
  3785     0C01  2C3E               	goto	l3155
  3786     0C02                     l3149:
  3787     0C02  035B               	decf	_pg^(0+128),w
  3788     0C03  1D03               	btfss	3,2
  3789     0C04  2C06               	goto	u4071
  3790     0C05  2C07               	goto	u4070
  3791     0C06                     u4071:
  3792     0C06  2C3E               	goto	l3155
  3793     0C07                     u4070:
  3794     0C07                     l3151:
  3795                           
  3796                           ;main.c: 117:             LCD_SetCursor(0x20, 1,1);
  3797     0C07  01FA               	clrf	LCD_SetCursor@col
  3798     0C08  0AFA               	incf	LCD_SetCursor@col,f
  3799     0C09  01FB               	clrf	LCD_SetCursor@lig
  3800     0C0A  0AFB               	incf	LCD_SetCursor@lig,f
  3801     0C0B  3020               	movlw	32
  3802     0C0C  3187  27C6  318A   	fcall	_LCD_SetCursor
  3803                           
  3804                           ;main.c: 118:             LCD_Print(0x20, str2);
  3805     0C0F  3000               	movlw	low (STR_3| (0+32768))
  3806     0C10  00F7               	movwf	LCD_Print@Str
  3807     0C11  3098               	movlw	high (STR_3| (0+32768))
  3808     0C12  00F8               	movwf	LCD_Print@Str+1
  3809     0C13  3020               	movlw	32
  3810     0C14  3188  200C  318A   	fcall	_LCD_Print
  3811                           
  3812                           ;main.c: 119:             LCD_SetCursor(0x20, 6,2);
  3813     0C17  3006               	movlw	6
  3814     0C18  00FA               	movwf	LCD_SetCursor@col
  3815     0C19  3002               	movlw	2
  3816     0C1A  00FB               	movwf	LCD_SetCursor@lig
  3817     0C1B  3020               	movlw	32
  3818     0C1C  3187  27C6  318A   	fcall	_LCD_SetCursor
  3819                           
  3820                           ;main.c: 120:             FREQ_Afficher(0x20, freq);
  3821     0C1F  0021               	movlb	1	; select bank1
  3822     0C20  084F               	movf	(_freq+3)^(0+128),w
  3823     0C21  00B3               	movwf	(FREQ_Afficher@FRE+3)^(0+128)
  3824     0C22  084E               	movf	(_freq+2)^(0+128),w
  3825     0C23  00B2               	movwf	(FREQ_Afficher@FRE+2)^(0+128)
  3826     0C24  084D               	movf	(_freq+1)^(0+128),w
  3827     0C25  00B1               	movwf	(FREQ_Afficher@FRE+1)^(0+128)
  3828     0C26  084C               	movf	_freq^(0+128),w
  3829     0C27  00B0               	movwf	FREQ_Afficher@FRE^(0+128)
  3830     0C28  3020               	movlw	32
  3831     0C29  3180  2076  318A   	fcall	_FREQ_Afficher
  3832                           
  3833                           ;main.c: 121:             LCD_SetCursor(0x20, 18,4);
  3834     0C2C  3012               	movlw	18
  3835     0C2D  00FA               	movwf	LCD_SetCursor@col
  3836     0C2E  3004               	movlw	4
  3837     0C2F  00FB               	movwf	LCD_SetCursor@lig
  3838     0C30  3020               	movlw	32
  3839     0C31  3187  27C6  318A   	fcall	_LCD_SetCursor
  3840                           
  3841                           ;main.c: 122:             LCD_Print(0x20, pg2);
  3842     0C34  3043               	movlw	low (STR_5| (0+32768))
  3843     0C35  00F7               	movwf	LCD_Print@Str
  3844     0C36  3098               	movlw	high (STR_5| (0+32768))
  3845     0C37  00F8               	movwf	LCD_Print@Str+1
  3846     0C38  3020               	movlw	32
  3847     0C39  3188  200C  318A   	fcall	_LCD_Print
  3848     0C3C                     l3153:
  3849                           
  3850                           ;main.c: 124:             T1CONbits.TMR1ON = 1;
  3851     0C3C  0020               	movlb	0	; select bank0
  3852     0C3D  1418               	bsf	24,0	;volatile
  3853     0C3E                     l3155:
  3854                           
  3855                           ;main.c: 126:         _delay((unsigned long)((500)*(2000000UL/4000.0)));
  3856     0C3E  3002               	movlw	2
  3857     0C3F  0021               	movlb	1	; select bank1
  3858     0C40  00C8               	movwf	(??_main^(0+128)+1)
  3859     0C41  3045               	movlw	69
  3860     0C42  00C7               	movwf	??_main^(0+128)
  3861     0C43  30A9               	movlw	169
  3862     0C44                     u4087:
  3863     0C44  0B89               	decfsz	9,f
  3864     0C45  2C44               	goto	u4087
  3865     0C46  0BC7               	decfsz	??_main^(0+128),f
  3866     0C47  2C44               	goto	u4087
  3867     0C48  0BC8               	decfsz	(??_main^(0+128)+1),f
  3868     0C49  2C44               	goto	u4087
  3869     0C4A  3200               	nop2
  3870     0C4B  2AC7               	goto	l3105
  3871     0C4C  3180  285B         	ljmp	start
  3872     0C4E                     __end_of_main:
  3873                           
  3874                           	psect	text1
  3875     1788                     __ptext1:	
  3876 ;; *************** function ___lmul *****************
  3877 ;; Defined at:
  3878 ;;		line 15 in file "C:\Program Files\Microchip\xc8\v2.40\pic\sources\c99\common\Umul32.c"
  3879 ;; Parameters:    Size  Location     Type
  3880 ;;  multiplier      4    1[COMMON] unsigned long 
  3881 ;;  multiplicand    4    5[COMMON] unsigned long 
  3882 ;; Auto vars:     Size  Location     Type
  3883 ;;  product         4    0[BANK0 ] unsigned long 
  3884 ;; Return value:  Size  Location     Type
  3885 ;;                  4    1[COMMON] unsigned long 
  3886 ;; Registers used:
  3887 ;;		wreg, status,2, status,0
  3888 ;; Tracked objects:
  3889 ;;		On entry : 0/0
  3890 ;;		On exit  : 0/0
  3891 ;;		Unchanged: 0/0
  3892 ;; Data sizes:     COMMON   BANK0   BANK1   BANK2   BANK3   BANK4   BANK5   BANK6   BANK7   BANK8   BANK9  BANK10  BANK1
      +1  BANK12
  3893 ;;      Params:         8       0       0       0       0       0       0       0       0       0       0       0       
      +0       0
  3894 ;;      Locals:         0       4       0       0       0       0       0       0       0       0       0       0       
      +0       0
  3895 ;;      Temps:          0       0       0       0       0       0       0       0       0       0       0       0       
      +0       0
  3896 ;;      Totals:         8       4       0       0       0       0       0       0       0       0       0       0       
      +0       0
  3897 ;;Total ram usage:       12 bytes
  3898 ;; Hardware stack levels used: 1
  3899 ;; Hardware stack levels required when called: 1
  3900 ;; This function calls:
  3901 ;;		Nothing
  3902 ;; This function is called by:
  3903 ;;		_main
  3904 ;; This function uses a non-reentrant model
  3905 ;;
  3906                           
  3907     1788                     ___lmul:	
  3908                           ;psect for function ___lmul
  3909                           
  3910     1788                     l3089:	
  3911                           ;incstack = 0
  3912                           ; Regs used in ___lmul: [wreg+status,2+status,0]
  3913                           
  3914     1788  3000               	movlw	0
  3915     1789  0020               	movlb	0	; select bank0
  3916     178A  00A3               	movwf	___lmul@product+3
  3917     178B  3000               	movlw	0
  3918     178C  00A2               	movwf	___lmul@product+2
  3919     178D  3000               	movlw	0
  3920     178E  00A1               	movwf	___lmul@product+1
  3921     178F  3000               	movlw	0
  3922     1790  00A0               	movwf	___lmul@product
  3923     1791                     l3091:
  3924     1791  1C71               	btfss	___lmul@multiplier,0
  3925     1792  2F94               	goto	u3991
  3926     1793  2F95               	goto	u3990
  3927     1794                     u3991:
  3928     1794  2F9E               	goto	l3095
  3929     1795                     u3990:
  3930     1795                     l3093:
  3931     1795  0875               	movf	___lmul@multiplicand,w
  3932     1796  0020               	movlb	0	; select bank0
  3933     1797  07A0               	addwf	___lmul@product,f
  3934     1798  0876               	movf	___lmul@multiplicand+1,w
  3935     1799  3DA1               	addwfc	___lmul@product+1,f
  3936     179A  0877               	movf	___lmul@multiplicand+2,w
  3937     179B  3DA2               	addwfc	___lmul@product+2,f
  3938     179C  0878               	movf	___lmul@multiplicand+3,w
  3939     179D  3DA3               	addwfc	___lmul@product+3,f
  3940     179E                     l3095:
  3941     179E  3001               	movlw	1
  3942     179F                     u4005:
  3943     179F  35F5               	lslf	___lmul@multiplicand,f
  3944     17A0  0DF6               	rlf	___lmul@multiplicand+1,f
  3945     17A1  0DF7               	rlf	___lmul@multiplicand+2,f
  3946     17A2  0DF8               	rlf	___lmul@multiplicand+3,f
  3947     17A3  0B89               	decfsz	9,f
  3948     17A4  2F9F               	goto	u4005
  3949     17A5                     l3097:
  3950     17A5  3001               	movlw	1
  3951     17A6                     u4015:
  3952     17A6  36F4               	lsrf	___lmul@multiplier+3,f
  3953     17A7  0CF3               	rrf	___lmul@multiplier+2,f
  3954     17A8  0CF2               	rrf	___lmul@multiplier+1,f
  3955     17A9  0CF1               	rrf	___lmul@multiplier,f
  3956     17AA  0B89               	decfsz	9,f
  3957     17AB  2FA6               	goto	u4015
  3958     17AC  0874               	movf	___lmul@multiplier+3,w
  3959     17AD  0473               	iorwf	___lmul@multiplier+2,w
  3960     17AE  0472               	iorwf	___lmul@multiplier+1,w
  3961     17AF  0471               	iorwf	___lmul@multiplier,w
  3962     17B0  1D03               	skipz
  3963     17B1  2FB3               	goto	u4021
  3964     17B2  2FB4               	goto	u4020
  3965     17B3                     u4021:
  3966     17B3  2F91               	goto	l3091
  3967     17B4                     u4020:
  3968     17B4                     l3099:
  3969     17B4  0020               	movlb	0	; select bank0
  3970     17B5  0823               	movf	___lmul@product+3,w
  3971     17B6  00F4               	movwf	?___lmul+3
  3972     17B7  0822               	movf	___lmul@product+2,w
  3973     17B8  00F3               	movwf	?___lmul+2
  3974     17B9  0821               	movf	___lmul@product+1,w
  3975     17BA  00F2               	movwf	?___lmul+1
  3976     17BB  0820               	movf	___lmul@product,w
  3977     17BC  00F1               	movwf	?___lmul
  3978     17BD                     l359:
  3979     17BD  0008               	return
  3980     17BE                     __end_of___lmul:
  3981                           
  3982                           	psect	text2
  3983     07C6                     __ptext2:	
  3984 ;; *************** function _LCD_SetCursor *****************
  3985 ;; Defined at:
  3986 ;;		line 81 in file "LCD_IIC.c"
  3987 ;; Parameters:    Size  Location     Type
  3988 ;;  add             1    wreg     unsigned char 
  3989 ;;  col             1   10[COMMON] unsigned char 
  3990 ;;  lig             1   11[COMMON] unsigned char 
  3991 ;; Auto vars:     Size  Location     Type
  3992 ;;  add             1    2[BANK0 ] unsigned char 
  3993 ;; Return value:  Size  Location     Type
  3994 ;;                  1    wreg      void 
  3995 ;; Registers used:
  3996 ;;		wreg, fsr0l, fsr0h, status,2, status,0, pclath, cstack
  3997 ;; Tracked objects:
  3998 ;;		On entry : 0/0
  3999 ;;		On exit  : 0/0
  4000 ;;		Unchanged: 0/0
  4001 ;; Data sizes:     COMMON   BANK0   BANK1   BANK2   BANK3   BANK4   BANK5   BANK6   BANK7   BANK8   BANK9  BANK10  BANK1
      +1  BANK12
  4002 ;;      Params:         2       0       0       0       0       0       0       0       0       0       0       0       
      +0       0
  4003 ;;      Locals:         0       1       0       0       0       0       0       0       0       0       0       0       
      +0       0
  4004 ;;      Temps:          0       2       0       0       0       0       0       0       0       0       0       0       
      +0       0
  4005 ;;      Totals:         2       3       0       0       0       0       0       0       0       0       0       0       
      +0       0
  4006 ;;Total ram usage:        5 bytes
  4007 ;; Hardware stack levels used: 1
  4008 ;; Hardware stack levels required when called: 4
  4009 ;; This function calls:
  4010 ;;		_instructionLCD
  4011 ;; This function is called by:
  4012 ;;		_main
  4013 ;; This function uses a non-reentrant model
  4014 ;;
  4015                           
  4016     07C6                     _LCD_SetCursor:	
  4017                           ;psect for function _LCD_SetCursor
  4018                           
  4019                           
  4020                           ;incstack = 0
  4021                           ; Regs used in _LCD_SetCursor: [wreg-fsr0h+status,2+status,0+pclath+cstack]
  4022                           ;LCD_SetCursor@add stored from wreg
  4023     07C6  0020               	movlb	0	; select bank0
  4024     07C7  00A2               	movwf	LCD_SetCursor@add
  4025     07C8                     l3045:
  4026                           
  4027                           ;LCD_IIC.c: 82:   switch(lig)
  4028     07C8  2FE9               	goto	l3055
  4029     07C9                     l3047:
  4030                           
  4031                           ;LCD_IIC.c: 85:       instructionLCD(add, 0xC0 + col - 1);
  4032     07C9  087A               	movf	LCD_SetCursor@col,w
  4033     07CA  3EBF               	addlw	191
  4034     07CB  00F7               	movwf	instructionLCD@inst
  4035     07CC  0822               	movf	LCD_SetCursor@add,w
  4036     07CD  3197  2701  3187   	fcall	_instructionLCD
  4037                           
  4038                           ;LCD_IIC.c: 86:       break;
  4039     07D0  2FFC               	goto	l185
  4040     07D1                     l3049:
  4041                           
  4042                           ;LCD_IIC.c: 88:       instructionLCD(add, 0x94 + col - 1);
  4043     07D1  087A               	movf	LCD_SetCursor@col,w
  4044     07D2  3E93               	addlw	147
  4045     07D3  00F7               	movwf	instructionLCD@inst
  4046     07D4  0822               	movf	LCD_SetCursor@add,w
  4047     07D5  3197  2701  3187   	fcall	_instructionLCD
  4048                           
  4049                           ;LCD_IIC.c: 89:       break;
  4050     07D8  2FFC               	goto	l185
  4051     07D9                     l3051:
  4052                           
  4053                           ;LCD_IIC.c: 91:       instructionLCD(add, 0xD4 + col - 1);
  4054     07D9  087A               	movf	LCD_SetCursor@col,w
  4055     07DA  3ED3               	addlw	211
  4056     07DB  00F7               	movwf	instructionLCD@inst
  4057     07DC  0822               	movf	LCD_SetCursor@add,w
  4058     07DD  3197  2701  3187   	fcall	_instructionLCD
  4059                           
  4060                           ;LCD_IIC.c: 92:     break;
  4061     07E0  2FFC               	goto	l185
  4062     07E1                     l3053:
  4063                           
  4064                           ;LCD_IIC.c: 94:       instructionLCD(add, 0x80 + col - 1);
  4065     07E1  087A               	movf	LCD_SetCursor@col,w
  4066     07E2  3E7F               	addlw	127
  4067     07E3  00F7               	movwf	instructionLCD@inst
  4068     07E4  0822               	movf	LCD_SetCursor@add,w
  4069     07E5  3197  2701  3187   	fcall	_instructionLCD
  4070                           
  4071                           ;LCD_IIC.c: 95:   }
  4072     07E8  2FFC               	goto	l185
  4073     07E9                     l3055:
  4074     07E9  087B               	movf	LCD_SetCursor@lig,w
  4075     07EA  00A0               	movwf	??_LCD_SetCursor
  4076     07EB  01A1               	clrf	??_LCD_SetCursor+1
  4077                           
  4078                           ; Switch on 2 bytes has been partitioned into a top level switch of size 1, and 1 sub-sw
      +                          itches
  4079                           ; Switch size 1, requested type "simple"
  4080                           ; Number of cases is 1, Range of values is 0 to 0
  4081                           ; switch strategies available:
  4082                           ; Name         Instructions Cycles
  4083                           ; simple_byte            4     3 (average)
  4084                           ; direct_byte            8     6 (fixed)
  4085                           ; jumptable            260     6 (fixed)
  4086                           ;	Chosen strategy is simple_byte
  4087     07EC  0821               	movf	??_LCD_SetCursor+1,w
  4088     07ED  3A00               	xorlw	0	; case 0
  4089     07EE  1903               	skipnz
  4090     07EF  2FF1               	goto	l3199
  4091     07F0  2FE1               	goto	l3053
  4092     07F1                     l3199:
  4093                           
  4094                           ; Switch size 1, requested type "simple"
  4095                           ; Number of cases is 3, Range of values is 2 to 4
  4096                           ; switch strategies available:
  4097                           ; Name         Instructions Cycles
  4098                           ; simple_byte           10     6 (average)
  4099                           ; direct_byte           15     9 (fixed)
  4100                           ; jumptable            263     9 (fixed)
  4101                           ;	Chosen strategy is simple_byte
  4102     07F1  0820               	movf	??_LCD_SetCursor,w
  4103     07F2  3A02               	xorlw	2	; case 2
  4104     07F3  1903               	skipnz
  4105     07F4  2FC9               	goto	l3047
  4106     07F5  3A01               	xorlw	1	; case 3
  4107     07F6  1903               	skipnz
  4108     07F7  2FD1               	goto	l3049
  4109     07F8  3A07               	xorlw	7	; case 4
  4110     07F9  1903               	skipnz
  4111     07FA  2FD9               	goto	l3051
  4112     07FB  2FE1               	goto	l3053
  4113     07FC                     l185:
  4114     07FC  0008               	return
  4115     07FD                     __end_of_LCD_SetCursor:
  4116                           
  4117                           	psect	text3
  4118     1653                     __ptext3:	
  4119 ;; *************** function _LCD_Clr *****************
  4120 ;; Defined at:
  4121 ;;		line 141 in file "LCD_IIC.c"
  4122 ;; Parameters:    Size  Location     Type
  4123 ;;  add             1    wreg     unsigned char 
  4124 ;; Auto vars:     Size  Location     Type
  4125 ;;  add             1   10[COMMON] unsigned char 
  4126 ;; Return value:  Size  Location     Type
  4127 ;;                  1    wreg      void 
  4128 ;; Registers used:
  4129 ;;		wreg, status,2, status,0, pclath, cstack
  4130 ;; Tracked objects:
  4131 ;;		On entry : 0/0
  4132 ;;		On exit  : 0/0
  4133 ;;		Unchanged: 0/0
  4134 ;; Data sizes:     COMMON   BANK0   BANK1   BANK2   BANK3   BANK4   BANK5   BANK6   BANK7   BANK8   BANK9  BANK10  BANK1
      +1  BANK12
  4135 ;;      Params:         0       0       0       0       0       0       0       0       0       0       0       0       
      +0       0
  4136 ;;      Locals:         1       0       0       0       0       0       0       0       0       0       0       0       
      +0       0
  4137 ;;      Temps:          0       0       0       0       0       0       0       0       0       0       0       0       
      +0       0
  4138 ;;      Totals:         1       0       0       0       0       0       0       0       0       0       0       0       
      +0       0
  4139 ;;Total ram usage:        1 bytes
  4140 ;; Hardware stack levels used: 1
  4141 ;; Hardware stack levels required when called: 4
  4142 ;; This function calls:
  4143 ;;		_instructionLCD
  4144 ;; This function is called by:
  4145 ;;		_main
  4146 ;; This function uses a non-reentrant model
  4147 ;;
  4148                           
  4149     1653                     _LCD_Clr:	
  4150                           ;psect for function _LCD_Clr
  4151                           
  4152                           
  4153                           ;incstack = 0
  4154                           ; Regs used in _LCD_Clr: [wreg+status,2+status,0+pclath+cstack]
  4155                           ;LCD_Clr@add stored from wreg
  4156     1653  00FA               	movwf	LCD_Clr@add
  4157     1654                     l3043:
  4158                           
  4159                           ;LCD_IIC.c: 142:   instructionLCD(add, 0x01);
  4160     1654  01F7               	clrf	instructionLCD@inst
  4161     1655  0AF7               	incf	instructionLCD@inst,f
  4162     1656  087A               	movf	LCD_Clr@add,w
  4163     1657  3197  2701  3196   	fcall	_instructionLCD
  4164     165A                     l209:
  4165     165A  0008               	return
  4166     165B                     __end_of_LCD_Clr:
  4167                           
  4168                           	psect	text4
  4169     0913                     __ptext4:	
  4170 ;; *************** function _LCD_Begin *****************
  4171 ;; Defined at:
  4172 ;;		line 58 in file "LCD_IIC.c"
  4173 ;; Parameters:    Size  Location     Type
  4174 ;;  add             1    wreg     unsigned char 
  4175 ;; Auto vars:     Size  Location     Type
  4176 ;;  add             1   11[COMMON] unsigned char 
  4177 ;; Return value:  Size  Location     Type
  4178 ;;                  1    wreg      void 
  4179 ;; Registers used:
  4180 ;;		wreg, status,2, status,0, pclath, cstack
  4181 ;; Tracked objects:
  4182 ;;		On entry : 0/0
  4183 ;;		On exit  : 0/0
  4184 ;;		Unchanged: 0/0
  4185 ;; Data sizes:     COMMON   BANK0   BANK1   BANK2   BANK3   BANK4   BANK5   BANK6   BANK7   BANK8   BANK9  BANK10  BANK1
      +1  BANK12
  4186 ;;      Params:         0       0       0       0       0       0       0       0       0       0       0       0       
      +0       0
  4187 ;;      Locals:         1       0       0       0       0       0       0       0       0       0       0       0       
      +0       0
  4188 ;;      Temps:          1       0       0       0       0       0       0       0       0       0       0       0       
      +0       0
  4189 ;;      Totals:         2       0       0       0       0       0       0       0       0       0       0       0       
      +0       0
  4190 ;;Total ram usage:        2 bytes
  4191 ;; Hardware stack levels used: 1
  4192 ;; Hardware stack levels required when called: 4
  4193 ;; This function calls:
  4194 ;;		_LCD_Envoi
  4195 ;;		_instructionLCD
  4196 ;; This function is called by:
  4197 ;;		_main
  4198 ;; This function uses a non-reentrant model
  4199 ;;
  4200                           
  4201     0913                     _LCD_Begin:	
  4202                           ;psect for function _LCD_Begin
  4203                           
  4204                           
  4205                           ;incstack = 0
  4206                           ; Regs used in _LCD_Begin: [wreg+status,2+status,0+pclath+cstack]
  4207                           ;LCD_Begin@add stored from wreg
  4208     0913  00FB               	movwf	LCD_Begin@add
  4209     0914                     l3017:
  4210                           
  4211                           ;LCD_IIC.c: 60:   LCD_Envoi(add, 0);
  4212     0914  01F4               	clrf	LCD_Envoi@data
  4213     0915  087B               	movf	LCD_Begin@add,w
  4214     0916  3197  2728  3189   	fcall	_LCD_Envoi
  4215     0919                     l3019:
  4216                           
  4217                           ;LCD_IIC.c: 62:   _delay((unsigned long)((40)*(2000000UL/4000.0)));
  4218     0919  301A               	movlw	26
  4219     091A  00FA               	movwf	??_LCD_Begin
  4220     091B  30F8               	movlw	248
  4221     091C                     u4097:
  4222     091C  0B89               	decfsz	9,f
  4223     091D  291C               	goto	u4097
  4224     091E  0BFA               	decfsz	??_LCD_Begin,f
  4225     091F  291C               	goto	u4097
  4226     0920  3200               	nop2
  4227     0921                     l3021:
  4228                           
  4229                           ;LCD_IIC.c: 63:   instructionLCD(add ,3);
  4230     0921  3003               	movlw	3
  4231     0922  00F7               	movwf	instructionLCD@inst
  4232     0923  087B               	movf	LCD_Begin@add,w
  4233     0924  3197  2701  3189   	fcall	_instructionLCD
  4234                           
  4235                           ;LCD_IIC.c: 64:   _delay((unsigned long)((5)*(2000000UL/4000.0)));
  4236     0927  3004               	movlw	4
  4237     0928  00FA               	movwf	??_LCD_Begin
  4238     0929  303E               	movlw	62
  4239     092A                     u4107:
  4240     092A  0B89               	decfsz	9,f
  4241     092B  292A               	goto	u4107
  4242     092C  0BFA               	decfsz	??_LCD_Begin,f
  4243     092D  292A               	goto	u4107
  4244     092E                     l3023:
  4245                           
  4246                           ;LCD_IIC.c: 65:   instructionLCD(add ,3);
  4247     092E  3003               	movlw	3
  4248     092F  00F7               	movwf	instructionLCD@inst
  4249     0930  087B               	movf	LCD_Begin@add,w
  4250     0931  3197  2701  3189   	fcall	_instructionLCD
  4251     0934                     l3025:
  4252                           
  4253                           ;LCD_IIC.c: 66:   _delay((unsigned long)((5)*(2000000UL/4000.0)));
  4254     0934  3004               	movlw	4
  4255     0935  00FA               	movwf	??_LCD_Begin
  4256     0936  303E               	movlw	62
  4257     0937                     u4117:
  4258     0937  0B89               	decfsz	9,f
  4259     0938  2937               	goto	u4117
  4260     0939  0BFA               	decfsz	??_LCD_Begin,f
  4261     093A  2937               	goto	u4117
  4262                           
  4263                           ;LCD_IIC.c: 67:   instructionLCD(add ,3);
  4264     093B  3003               	movlw	3
  4265     093C  00F7               	movwf	instructionLCD@inst
  4266     093D  087B               	movf	LCD_Begin@add,w
  4267     093E  3197  2701  3189   	fcall	_instructionLCD
  4268     0941                     l3027:
  4269                           
  4270                           ;LCD_IIC.c: 68:   _delay((unsigned long)((5)*(2000000UL/4000.0)));
  4271     0941  3004               	movlw	4
  4272     0942  00FA               	movwf	??_LCD_Begin
  4273     0943  303E               	movlw	62
  4274     0944                     u4127:
  4275     0944  0B89               	decfsz	9,f
  4276     0945  2944               	goto	u4127
  4277     0946  0BFA               	decfsz	??_LCD_Begin,f
  4278     0947  2944               	goto	u4127
  4279     0948                     l3029:
  4280                           
  4281                           ;LCD_IIC.c: 69:   instructionLCD(add ,0x02);
  4282     0948  3002               	movlw	2
  4283     0949  00F7               	movwf	instructionLCD@inst
  4284     094A  087B               	movf	LCD_Begin@add,w
  4285     094B  3197  2701  3189   	fcall	_instructionLCD
  4286                           
  4287                           ;LCD_IIC.c: 70:   _delay((unsigned long)((5)*(2000000UL/4000.0)));
  4288     094E  3004               	movlw	4
  4289     094F  00FA               	movwf	??_LCD_Begin
  4290     0950  303E               	movlw	62
  4291     0951                     u4137:
  4292     0951  0B89               	decfsz	9,f
  4293     0952  2951               	goto	u4137
  4294     0953  0BFA               	decfsz	??_LCD_Begin,f
  4295     0954  2951               	goto	u4137
  4296     0955                     l3031:
  4297                           
  4298                           ;LCD_IIC.c: 71:   instructionLCD(add ,0x20 | (2 << 2));
  4299     0955  3028               	movlw	40
  4300     0956  00F7               	movwf	instructionLCD@inst
  4301     0957  087B               	movf	LCD_Begin@add,w
  4302     0958  3197  2701  3189   	fcall	_instructionLCD
  4303     095B                     l3033:
  4304                           
  4305                           ;LCD_IIC.c: 72:   _delay((unsigned long)((50)*(2000000UL/4000.0)));
  4306     095B  3021               	movlw	33
  4307     095C  00FA               	movwf	??_LCD_Begin
  4308     095D  3076               	movlw	118
  4309     095E                     u4147:
  4310     095E  0B89               	decfsz	9,f
  4311     095F  295E               	goto	u4147
  4312     0960  0BFA               	decfsz	??_LCD_Begin,f
  4313     0961  295E               	goto	u4147
  4314     0962  3200               	nop2
  4315                           
  4316                           ;LCD_IIC.c: 73:   instructionLCD(add ,0x0C);
  4317     0963  300C               	movlw	12
  4318     0964  00F7               	movwf	instructionLCD@inst
  4319     0965  087B               	movf	LCD_Begin@add,w
  4320     0966  3197  2701  3189   	fcall	_instructionLCD
  4321     0969                     l3035:
  4322                           
  4323                           ;LCD_IIC.c: 74:   _delay((unsigned long)((50)*(2000000UL/4000.0)));
  4324     0969  3021               	movlw	33
  4325     096A  00FA               	movwf	??_LCD_Begin
  4326     096B  3076               	movlw	118
  4327     096C                     u4157:
  4328     096C  0B89               	decfsz	9,f
  4329     096D  296C               	goto	u4157
  4330     096E  0BFA               	decfsz	??_LCD_Begin,f
  4331     096F  296C               	goto	u4157
  4332     0970  3200               	nop2
  4333     0971                     l3037:
  4334                           
  4335                           ;LCD_IIC.c: 75:   instructionLCD(add ,0x01);
  4336     0971  01F7               	clrf	instructionLCD@inst
  4337     0972  0AF7               	incf	instructionLCD@inst,f
  4338     0973  087B               	movf	LCD_Begin@add,w
  4339     0974  3197  2701  3189   	fcall	_instructionLCD
  4340                           
  4341                           ;LCD_IIC.c: 76:   _delay((unsigned long)((50)*(2000000UL/4000.0)));
  4342     0977  3021               	movlw	33
  4343     0978  00FA               	movwf	??_LCD_Begin
  4344     0979  3076               	movlw	118
  4345     097A                     u4167:
  4346     097A  0B89               	decfsz	9,f
  4347     097B  297A               	goto	u4167
  4348     097C  0BFA               	decfsz	??_LCD_Begin,f
  4349     097D  297A               	goto	u4167
  4350     097E  3200               	nop2
  4351     097F                     l3039:
  4352                           
  4353                           ;LCD_IIC.c: 77:   instructionLCD(add ,0x04 | 0x02);
  4354     097F  3006               	movlw	6
  4355     0980  00F7               	movwf	instructionLCD@inst
  4356     0981  087B               	movf	LCD_Begin@add,w
  4357     0982  3197  2701  3189   	fcall	_instructionLCD
  4358     0985                     l3041:
  4359                           
  4360                           ;LCD_IIC.c: 78:   _delay((unsigned long)((50)*(2000000UL/4000.0)));
  4361     0985  3021               	movlw	33
  4362     0986  00FA               	movwf	??_LCD_Begin
  4363     0987  3076               	movlw	118
  4364     0988                     u4177:
  4365     0988  0B89               	decfsz	9,f
  4366     0989  2988               	goto	u4177
  4367     098A  0BFA               	decfsz	??_LCD_Begin,f
  4368     098B  2988               	goto	u4177
  4369     098C  3200               	nop2
  4370     098D                     l176:
  4371     098D  0008               	return
  4372     098E                     __end_of_LCD_Begin:
  4373                           
  4374                           	psect	text5
  4375     1701                     __ptext5:	
  4376 ;; *************** function _instructionLCD *****************
  4377 ;; Defined at:
  4378 ;;		line 50 in file "LCD_IIC.c"
  4379 ;; Parameters:    Size  Location     Type
  4380 ;;  add             1    wreg     unsigned char 
  4381 ;;  inst            1    7[COMMON] unsigned char 
  4382 ;; Auto vars:     Size  Location     Type
  4383 ;;  add             1    9[COMMON] unsigned char 
  4384 ;; Return value:  Size  Location     Type
  4385 ;;                  1    wreg      void 
  4386 ;; Registers used:
  4387 ;;		wreg, status,2, status,0, pclath, cstack
  4388 ;; Tracked objects:
  4389 ;;		On entry : 0/0
  4390 ;;		On exit  : 0/0
  4391 ;;		Unchanged: 0/0
  4392 ;; Data sizes:     COMMON   BANK0   BANK1   BANK2   BANK3   BANK4   BANK5   BANK6   BANK7   BANK8   BANK9  BANK10  BANK1
      +1  BANK12
  4393 ;;      Params:         1       0       0       0       0       0       0       0       0       0       0       0       
      +0       0
  4394 ;;      Locals:         1       0       0       0       0       0       0       0       0       0       0       0       
      +0       0
  4395 ;;      Temps:          1       0       0       0       0       0       0       0       0       0       0       0       
      +0       0
  4396 ;;      Totals:         3       0       0       0       0       0       0       0       0       0       0       0       
      +0       0
  4397 ;;Total ram usage:        3 bytes
  4398 ;; Hardware stack levels used: 1
  4399 ;; Hardware stack levels required when called: 3
  4400 ;; This function calls:
  4401 ;;		_LCD_Envoi
  4402 ;; This function is called by:
  4403 ;;		_LCD_Begin
  4404 ;;		_LCD_SetCursor
  4405 ;;		_LCD_Clr
  4406 ;;		_LCD_ShiftL
  4407 ;;		_LCD_ShiftR
  4408 ;; This function uses a non-reentrant model
  4409 ;;
  4410                           
  4411     1701                     _instructionLCD:	
  4412                           ;psect for function _instructionLCD
  4413                           
  4414                           
  4415                           ;incstack = 0
  4416                           ; Regs used in _instructionLCD: [wreg+status,2+status,0+pclath+cstack]
  4417                           ;instructionLCD@add stored from wreg
  4418     1701  00F9               	movwf	instructionLCD@add
  4419     1702                     l2925:
  4420                           
  4421                           ;LCD_IIC.c: 51:     RS = 0;
  4422     1702  107C               	bcf	_RS/(0+8),_RS& (0+7)
  4423     1703                     l2927:
  4424                           
  4425                           ;LCD_IIC.c: 52:     LCD_Envoi(add, (inst & 0xF0));
  4426     1703  0877               	movf	instructionLCD@inst,w
  4427     1704  39F0               	andlw	240
  4428     1705  00F4               	movwf	LCD_Envoi@data
  4429     1706  0879               	movf	instructionLCD@add,w
  4430     1707  3197  2728  3197   	fcall	_LCD_Envoi
  4431                           
  4432                           ;LCD_IIC.c: 53:     LCD_Envoi(add, (inst << 4) & 0xF0);
  4433     170A  0877               	movf	instructionLCD@inst,w
  4434     170B  00F8               	movwf	??_instructionLCD
  4435     170C  3003               	movlw	3
  4436     170D                     u3785:
  4437     170D  35F8               	lslf	??_instructionLCD,f
  4438     170E  3EFF               	addlw	-1
  4439     170F  1D03               	skipz
  4440     1710  2F0D               	goto	u3785
  4441     1711  3578               	lslf	??_instructionLCD,w
  4442     1712  39F0               	andlw	240
  4443     1713  00F4               	movwf	LCD_Envoi@data
  4444     1714  0879               	movf	instructionLCD@add,w
  4445     1715  3197  2728  3197   	fcall	_LCD_Envoi
  4446     1718                     l2929:
  4447                           
  4448                           ;LCD_IIC.c: 54:     if((inst == 0x01) || (inst == 0x02))
  4449     1718  0377               	decf	instructionLCD@inst,w
  4450     1719  1903               	btfsc	3,2
  4451     171A  2F1C               	goto	u3791
  4452     171B  2F1D               	goto	u3790
  4453     171C                     u3791:
  4454     171C  2F23               	goto	l2933
  4455     171D                     u3790:
  4456     171D                     l2931:
  4457     171D  3002               	movlw	2
  4458     171E  0677               	xorwf	instructionLCD@inst,w
  4459     171F  1D03               	btfss	3,2
  4460     1720  2F22               	goto	u3801
  4461     1721  2F23               	goto	u3800
  4462     1722                     u3801:
  4463     1722  2F27               	goto	l173
  4464     1723                     u3800:
  4465     1723                     l2933:
  4466                           
  4467                           ;LCD_IIC.c: 55:     _delay((unsigned long)((2)*(2000000UL/4000.0)));
  4468     1723  30C8               	movlw	200
  4469     1724                     u4187:
  4470     1724  3200               	nop2
  4471     1725  0B89               	decfsz	9,f
  4472     1726  2F24               	goto	u4187
  4473     1727                     l173:
  4474     1727  0008               	return
  4475     1728                     __end_of_instructionLCD:
  4476                           
  4477                           	psect	text6
  4478     07FD                     __ptext6:	
  4479 ;; *************** function _IntEnable *****************
  4480 ;; Defined at:
  4481 ;;		line 46 in file "FREQ.c"
  4482 ;; Parameters:    Size  Location     Type
  4483 ;;		None
  4484 ;; Auto vars:     Size  Location     Type
  4485 ;;		None
  4486 ;; Return value:  Size  Location     Type
  4487 ;;                  1    wreg      void 
  4488 ;; Registers used:
  4489 ;;		None
  4490 ;; Tracked objects:
  4491 ;;		On entry : 0/0
  4492 ;;		On exit  : 0/0
  4493 ;;		Unchanged: 0/0
  4494 ;; Data sizes:     COMMON   BANK0   BANK1   BANK2   BANK3   BANK4   BANK5   BANK6   BANK7   BANK8   BANK9  BANK10  BANK1
      +1  BANK12
  4495 ;;      Params:         0       0       0       0       0       0       0       0       0       0       0       0       
      +0       0
  4496 ;;      Locals:         0       0       0       0       0       0       0       0       0       0       0       0       
      +0       0
  4497 ;;      Temps:          0       0       0       0       0       0       0       0       0       0       0       0       
      +0       0
  4498 ;;      Totals:         0       0       0       0       0       0       0       0       0       0       0       0       
      +0       0
  4499 ;;Total ram usage:        0 bytes
  4500 ;; Hardware stack levels used: 1
  4501 ;; Hardware stack levels required when called: 1
  4502 ;; This function calls:
  4503 ;;		Nothing
  4504 ;; This function is called by:
  4505 ;;		_main
  4506 ;; This function uses a non-reentrant model
  4507 ;;
  4508                           
  4509     07FD                     _IntEnable:	
  4510                           ;psect for function _IntEnable
  4511                           
  4512     07FD                     l2515:	
  4513                           ;incstack = 0
  4514                           ; Regs used in _IntEnable: []
  4515                           
  4516                           
  4517                           ;FREQ.c: 47:     INTCONbits.GIE = 1;
  4518     07FD  178B               	bsf	11,7	;volatile
  4519     07FE                     l269:
  4520     07FE  0008               	return
  4521     07FF                     __end_of_IntEnable:
  4522                           
  4523                           	psect	text7
  4524     0002                     __ptext7:	
  4525 ;; *************** function _IntDisable *****************
  4526 ;; Defined at:
  4527 ;;		line 49 in file "FREQ.c"
  4528 ;; Parameters:    Size  Location     Type
  4529 ;;		None
  4530 ;; Auto vars:     Size  Location     Type
  4531 ;;		None
  4532 ;; Return value:  Size  Location     Type
  4533 ;;                  1    wreg      void 
  4534 ;; Registers used:
  4535 ;;		None
  4536 ;; Tracked objects:
  4537 ;;		On entry : 0/0
  4538 ;;		On exit  : 0/0
  4539 ;;		Unchanged: 0/0
  4540 ;; Data sizes:     COMMON   BANK0   BANK1   BANK2   BANK3   BANK4   BANK5   BANK6   BANK7   BANK8   BANK9  BANK10  BANK1
      +1  BANK12
  4541 ;;      Params:         0       0       0       0       0       0       0       0       0       0       0       0       
      +0       0
  4542 ;;      Locals:         0       0       0       0       0       0       0       0       0       0       0       0       
      +0       0
  4543 ;;      Temps:          0       0       0       0       0       0       0       0       0       0       0       0       
      +0       0
  4544 ;;      Totals:         0       0       0       0       0       0       0       0       0       0       0       0       
      +0       0
  4545 ;;Total ram usage:        0 bytes
  4546 ;; Hardware stack levels used: 1
  4547 ;; Hardware stack levels required when called: 1
  4548 ;; This function calls:
  4549 ;;		Nothing
  4550 ;; This function is called by:
  4551 ;;		_main
  4552 ;; This function uses a non-reentrant model
  4553 ;;
  4554                           
  4555     0002                     _IntDisable:	
  4556                           ;psect for function _IntDisable
  4557                           
  4558     0002                     l2407:	
  4559                           ;incstack = 0
  4560                           ; Regs used in _IntDisable: []
  4561                           
  4562                           
  4563                           ;FREQ.c: 50:     INTCONbits.GIE = 0;
  4564     0002  138B               	bcf	11,7	;volatile
  4565     0003                     l272:
  4566     0003  0008               	return
  4567     0004                     __end_of_IntDisable:
  4568                           
  4569                           	psect	text8
  4570     16DA                     __ptext8:	
  4571 ;; *************** function _IIC_Init *****************
  4572 ;; Defined at:
  4573 ;;		line 11 in file "IIC.c"
  4574 ;; Parameters:    Size  Location     Type
  4575 ;;		None
  4576 ;; Auto vars:     Size  Location     Type
  4577 ;;		None
  4578 ;; Return value:  Size  Location     Type
  4579 ;;                  1    wreg      void 
  4580 ;; Registers used:
  4581 ;;		wreg, status,2, status,0
  4582 ;; Tracked objects:
  4583 ;;		On entry : 0/0
  4584 ;;		On exit  : 0/0
  4585 ;;		Unchanged: 0/0
  4586 ;; Data sizes:     COMMON   BANK0   BANK1   BANK2   BANK3   BANK4   BANK5   BANK6   BANK7   BANK8   BANK9  BANK10  BANK1
      +1  BANK12
  4587 ;;      Params:         0       0       0       0       0       0       0       0       0       0       0       0       
      +0       0
  4588 ;;      Locals:         0       0       0       0       0       0       0       0       0       0       0       0       
      +0       0
  4589 ;;      Temps:          0       0       0       0       0       0       0       0       0       0       0       0       
      +0       0
  4590 ;;      Totals:         0       0       0       0       0       0       0       0       0       0       0       0       
      +0       0
  4591 ;;Total ram usage:        0 bytes
  4592 ;; Hardware stack levels used: 1
  4593 ;; Hardware stack levels required when called: 1
  4594 ;; This function calls:
  4595 ;;		Nothing
  4596 ;; This function is called by:
  4597 ;;		_main
  4598 ;; This function uses a non-reentrant model
  4599 ;;
  4600                           
  4601     16DA                     _IIC_Init:	
  4602                           ;psect for function _IIC_Init
  4603                           
  4604     16DA                     l2409:	
  4605                           ;incstack = 0
  4606                           ; Regs used in _IIC_Init: [wreg+status,2+status,0]
  4607                           
  4608                           
  4609                           ;IIC.c: 13:         OSCCONbits.IRCF = 0b1100;
  4610     16DA  0021               	movlb	1	; select bank1
  4611     16DB  0819               	movf	25,w	;volatile
  4612     16DC  3987               	andlw	-121
  4613     16DD  3860               	iorlw	96
  4614     16DE  0099               	movwf	25	;volatile
  4615     16DF                     l2411:
  4616                           
  4617                           ;IIC.c: 16:         TRISCbits.TRISC0 = 0b0;
  4618     16DF  100E               	bcf	14,0	;volatile
  4619     16E0                     l2413:
  4620                           
  4621                           ;IIC.c: 17:         TRISCbits.TRISC1 = 0b0;
  4622     16E0  108E               	bcf	14,1	;volatile
  4623     16E1                     l2415:
  4624                           
  4625                           ;IIC.c: 20:         LATC = 0x00;
  4626     16E1  0022               	movlb	2	; select bank2
  4627     16E2  018E               	clrf	14	;volatile
  4628     16E3                     l2417:
  4629                           
  4630                           ;IIC.c: 23:         ANSELCbits.ANSC0 = 0b0;
  4631     16E3  0023               	movlb	3	; select bank3
  4632     16E4  100E               	bcf	14,0	;volatile
  4633     16E5                     l2419:
  4634                           
  4635                           ;IIC.c: 24:         ANSELCbits.ANSC1 = 0b0;
  4636     16E5  108E               	bcf	14,1	;volatile
  4637     16E6                     l2421:
  4638                           
  4639                           ;IIC.c: 27:         ODCONCbits.ODC0 = 0b1;
  4640     16E6  0025               	movlb	5	; select bank5
  4641     16E7  140E               	bsf	14,0	;volatile
  4642     16E8                     l2423:
  4643                           
  4644                           ;IIC.c: 28:         ODCONCbits.ODC1 = 0b1;
  4645     16E8  148E               	bsf	14,1	;volatile
  4646     16E9                     l2425:
  4647                           
  4648                           ;IIC.c: 31:         TRISCbits.TRISC0 = 0b1;
  4649     16E9  0021               	movlb	1	; select bank1
  4650     16EA  140E               	bsf	14,0	;volatile
  4651     16EB                     l2427:
  4652                           
  4653                           ;IIC.c: 32:         TRISCbits.TRISC1 = 0b1;
  4654     16EB  148E               	bsf	14,1	;volatile
  4655     16EC                     l2429:
  4656                           
  4657                           ;IIC.c: 35:         SSP1STATbits.SMP = 0b1;
  4658     16EC  0024               	movlb	4	; select bank4
  4659     16ED  1794               	bsf	20,7	;volatile
  4660     16EE                     l2431:
  4661                           
  4662                           ;IIC.c: 38:         SSP1CON1bits.SSPEN = 0b1;
  4663     16EE  1695               	bsf	21,5	;volatile
  4664     16EF                     l2433:
  4665                           
  4666                           ;IIC.c: 39:         SSP1CON1bits.SSPM = 0b1000;
  4667     16EF  0815               	movf	21,w	;volatile
  4668     16F0  39F0               	andlw	-16
  4669     16F1  3808               	iorlw	8
  4670     16F2  0095               	movwf	21	;volatile
  4671     16F3                     l2435:
  4672                           
  4673                           ;IIC.c: 41:         SSPDATPPS = 0x11;
  4674     16F3  3011               	movlw	17
  4675     16F4  003C               	movlb	28	; select bank28
  4676     16F5  00A1               	movwf	33	;volatile
  4677     16F6                     l2437:
  4678                           
  4679                           ;IIC.c: 42:         SSPCLKPPS = 0x10;
  4680     16F6  3010               	movlw	16
  4681     16F7  00A0               	movwf	32	;volatile
  4682     16F8                     l2439:
  4683                           
  4684                           ;IIC.c: 44:         RC0PPS = 0x10;
  4685     16F8  3010               	movlw	16
  4686     16F9  003D               	movlb	29	; select bank29
  4687     16FA  00A0               	movwf	32	;volatile
  4688     16FB                     l2441:
  4689                           
  4690                           ;IIC.c: 45:         RC1PPS = 0x11;
  4691     16FB  3011               	movlw	17
  4692     16FC  00A1               	movwf	33	;volatile
  4693     16FD                     l2443:
  4694                           
  4695                           ;IIC.c: 48:         SSPADD = 0x04;
  4696     16FD  3004               	movlw	4
  4697     16FE  0024               	movlb	4	; select bank4
  4698     16FF  0092               	movwf	18	;volatile
  4699     1700                     l136:
  4700     1700  0008               	return
  4701     1701                     __end_of_IIC_Init:
  4702                           
  4703                           	psect	text9
  4704     16B3                     __ptext9:	
  4705 ;; *************** function _FREQ_init *****************
  4706 ;; Defined at:
  4707 ;;		line 13 in file "FREQ.c"
  4708 ;; Parameters:    Size  Location     Type
  4709 ;;		None
  4710 ;; Auto vars:     Size  Location     Type
  4711 ;;		None
  4712 ;; Return value:  Size  Location     Type
  4713 ;;                  1    wreg      void 
  4714 ;; Registers used:
  4715 ;;		wreg, status,2, status,0
  4716 ;; Tracked objects:
  4717 ;;		On entry : 0/0
  4718 ;;		On exit  : 0/0
  4719 ;;		Unchanged: 0/0
  4720 ;; Data sizes:     COMMON   BANK0   BANK1   BANK2   BANK3   BANK4   BANK5   BANK6   BANK7   BANK8   BANK9  BANK10  BANK1
      +1  BANK12
  4721 ;;      Params:         0       0       0       0       0       0       0       0       0       0       0       0       
      +0       0
  4722 ;;      Locals:         0       0       0       0       0       0       0       0       0       0       0       0       
      +0       0
  4723 ;;      Temps:          0       0       0       0       0       0       0       0       0       0       0       0       
      +0       0
  4724 ;;      Totals:         0       0       0       0       0       0       0       0       0       0       0       0       
      +0       0
  4725 ;;Total ram usage:        0 bytes
  4726 ;; Hardware stack levels used: 1
  4727 ;; Hardware stack levels required when called: 1
  4728 ;; This function calls:
  4729 ;;		Nothing
  4730 ;; This function is called by:
  4731 ;;		_main
  4732 ;; This function uses a non-reentrant model
  4733 ;;
  4734                           
  4735     16B3                     _FREQ_init:	
  4736                           ;psect for function _FREQ_init
  4737                           
  4738     16B3                     l2459:	
  4739                           ;incstack = 0
  4740                           ; Regs used in _FREQ_init: [wreg+status,2+status,0]
  4741                           
  4742                           
  4743                           ;FREQ.c: 15:     LATAbits.LATA2 = 0;
  4744     16B3  0022               	movlb	2	; select bank2
  4745     16B4  110C               	bcf	12,2	;volatile
  4746                           
  4747                           ;FREQ.c: 16:     ANSELAbits.ANSA2 = 0;
  4748     16B5  0023               	movlb	3	; select bank3
  4749     16B6  110C               	bcf	12,2	;volatile
  4750                           
  4751                           ;FREQ.c: 17:     WPUAbits.WPUA2 = 0;
  4752     16B7  0024               	movlb	4	; select bank4
  4753     16B8  110C               	bcf	12,2	;volatile
  4754                           
  4755                           ;FREQ.c: 18:     TRISAbits.TRISA2 = 1;
  4756     16B9  0021               	movlb	1	; select bank1
  4757     16BA  150C               	bsf	12,2	;volatile
  4758                           
  4759                           ;FREQ.c: 19:     LATAbits.LATA5 = 0;
  4760     16BB  0022               	movlb	2	; select bank2
  4761     16BC  128C               	bcf	12,5	;volatile
  4762                           
  4763                           ;FREQ.c: 20:     WPUAbits.WPUA5 = 0;
  4764     16BD  0024               	movlb	4	; select bank4
  4765     16BE  128C               	bcf	12,5	;volatile
  4766                           
  4767                           ;FREQ.c: 21:     TRISAbits.TRISA5 = 1;
  4768     16BF  0021               	movlb	1	; select bank1
  4769     16C0  168C               	bsf	12,5	;volatile
  4770     16C1                     l2461:
  4771                           
  4772                           ;FREQ.c: 23:     T1CONbits.T1CKPS = 0b01;
  4773     16C1  0020               	movlb	0	; select bank0
  4774     16C2  0818               	movf	24,w	;volatile
  4775     16C3  39CF               	andlw	-49
  4776     16C4  3810               	iorlw	16
  4777     16C5  0098               	movwf	24	;volatile
  4778     16C6                     l2463:
  4779                           
  4780                           ;FREQ.c: 24:     T1CONbits.TMR1ON = 1;
  4781     16C6  1418               	bsf	24,0	;volatile
  4782     16C7                     l2465:
  4783                           
  4784                           ;FREQ.c: 26:     T1GCONbits.TMR1GE = 1;
  4785     16C7  1799               	bsf	25,7	;volatile
  4786     16C8                     l2467:
  4787                           
  4788                           ;FREQ.c: 27:     T1GCONbits.T1GPOL = 1;
  4789     16C8  1719               	bsf	25,6	;volatile
  4790     16C9                     l2469:
  4791                           
  4792                           ;FREQ.c: 28:     T1GCONbits.T1GTM = 1;
  4793     16C9  1699               	bsf	25,5	;volatile
  4794                           
  4795                           ;FREQ.c: 29:     T1GCONbits.T1GSS = 0b00;
  4796     16CA  30FC               	movlw	-4
  4797     16CB  0599               	andwf	25,f	;volatile
  4798     16CC                     l2471:
  4799                           
  4800                           ;FREQ.c: 30:     T1GPPS = 0b00000010;
  4801     16CC  3002               	movlw	2
  4802     16CD  003C               	movlb	28	; select bank28
  4803     16CE  0093               	movwf	19	;volatile
  4804     16CF                     l2473:
  4805                           
  4806                           ;FREQ.c: 32:     PIE1bits.TMR1GIE = 1;
  4807     16CF  0021               	movlb	1	; select bank1
  4808     16D0  1790               	bsf	16,7	;volatile
  4809     16D1                     l2475:
  4810                           
  4811                           ;FREQ.c: 33:     PIE1bits.TMR1IE = 1;
  4812     16D1  1410               	bsf	16,0	;volatile
  4813     16D2                     l2477:
  4814                           
  4815                           ;FREQ.c: 35:     PIR1bits.TMR1GIF = 0;
  4816     16D2  0020               	movlb	0	; select bank0
  4817     16D3  1390               	bcf	16,7	;volatile
  4818     16D4                     l2479:
  4819                           
  4820                           ;FREQ.c: 36:     PIR1bits.TMR1IF = 0;
  4821     16D4  1010               	bcf	16,0	;volatile
  4822     16D5                     l2481:
  4823                           
  4824                           ;FREQ.c: 39:     IOCAPbits.IOCAP5 = 1;
  4825     16D5  0027               	movlb	7	; select bank7
  4826     16D6  1691               	bsf	17,5	;volatile
  4827     16D7                     l2483:
  4828                           
  4829                           ;FREQ.c: 40:     INTCONbits.IOCIE = 1;
  4830     16D7  158B               	bsf	11,3	;volatile
  4831     16D8                     l2485:
  4832                           
  4833                           ;FREQ.c: 41:     INTCONbits.PEIE = 1;
  4834     16D8  170B               	bsf	11,6	;volatile
  4835     16D9                     l266:
  4836     16D9  0008               	return
  4837     16DA                     __end_of_FREQ_init:
  4838                           
  4839                           	psect	text10
  4840     0076                     __ptext10:	
  4841 ;; *************** function _FREQ_Afficher *****************
  4842 ;; Defined at:
  4843 ;;		line 53 in file "FREQ.c"
  4844 ;; Parameters:    Size  Location     Type
  4845 ;;  LCD_ADD         1    wreg     unsigned char 
  4846 ;;  FRE             4   16[BANK1 ] float 
  4847 ;; Auto vars:     Size  Location     Type
  4848 ;;  LCD_ADD         1   38[BANK1 ] unsigned char 
  4849 ;;  d1z             1   37[BANK1 ] unsigned char 
  4850 ;;  dec             1   36[BANK1 ] unsigned char 
  4851 ;;  dix             1   35[BANK1 ] unsigned char 
  4852 ;;  cen             1   30[BANK1 ] unsigned char 
  4853 ;;  XX              2   28[BANK1 ] PTR unsigned char 
  4854 ;;		 -> STR_6(8), 
  4855 ;; Return value:  Size  Location     Type
  4856 ;;                  1    wreg      void 
  4857 ;; Registers used:
  4858 ;;		wreg, fsr0l, fsr0h, status,2, status,0, pclath, cstack
  4859 ;; Tracked objects:
  4860 ;;		On entry : 0/0
  4861 ;;		On exit  : 0/0
  4862 ;;		Unchanged: 0/0
  4863 ;; Data sizes:     COMMON   BANK0   BANK1   BANK2   BANK3   BANK4   BANK5   BANK6   BANK7   BANK8   BANK9  BANK10  BANK1
      +1  BANK12
  4864 ;;      Params:         0       0       4       0       0       0       0       0       0       0       0       0       
      +0       0
  4865 ;;      Locals:         0       0      15       0       0       0       0       0       0       0       0       0       
      +0       0
  4866 ;;      Temps:          0       0       4       0       0       0       0       0       0       0       0       0       
      +0       0
  4867 ;;      Totals:         0       0      23       0       0       0       0       0       0       0       0       0       
      +0       0
  4868 ;;Total ram usage:       23 bytes
  4869 ;; Hardware stack levels used: 1
  4870 ;; Hardware stack levels required when called: 4
  4871 ;; This function calls:
  4872 ;;		_LCD_Print
  4873 ;;		___fldiv
  4874 ;;		___flge
  4875 ;;		___flmul
  4876 ;;		___flsub
  4877 ;;		___fltol
  4878 ;;		___xxtofl
  4879 ;;		_afficherCaractereLCD
  4880 ;; This function is called by:
  4881 ;;		_main
  4882 ;; This function uses a non-reentrant model
  4883 ;;
  4884                           
  4885     0076                     _FREQ_Afficher:	
  4886                           ;psect for function _FREQ_Afficher
  4887                           
  4888                           
  4889                           ;incstack = 0
  4890                           ; Regs used in _FREQ_Afficher: [wreg-fsr0h+status,2+status,0+pclath+cstack]
  4891                           ;FREQ_Afficher@LCD_ADD stored from wreg
  4892     0076  0021               	movlb	1	; select bank1
  4893     0077  00C6               	movwf	FREQ_Afficher@LCD_ADD^(0+128)
  4894     0078                     l3081:
  4895                           
  4896                           ;FREQ.c: 55:     if(FRE >= 99.99){
  4897     0078  0833               	movf	(FREQ_Afficher@FRE+3)^(0+128),w
  4898     0079  00F4               	movwf	___flge@ff1+3
  4899     007A  0832               	movf	(FREQ_Afficher@FRE+2)^(0+128),w
  4900     007B  00F3               	movwf	___flge@ff1+2
  4901     007C  0831               	movf	(FREQ_Afficher@FRE+1)^(0+128),w
  4902     007D  00F2               	movwf	___flge@ff1+1
  4903     007E  0830               	movf	FREQ_Afficher@FRE^(0+128),w
  4904     007F  00F1               	movwf	___flge@ff1
  4905     0080  3042               	movlw	66
  4906     0081  00F8               	movwf	___flge@ff2+3
  4907     0082  30C7               	movlw	199
  4908     0083  00F7               	movwf	___flge@ff2+2
  4909     0084  30FA               	movlw	250
  4910     0085  00F6               	movwf	___flge@ff2+1
  4911     0086  30E1               	movlw	225
  4912     0087  00F5               	movwf	___flge@ff2
  4913     0088  3189  218E  3180   	fcall	___flge
  4914     008B  1C03               	btfss	3,0
  4915     008C  288E               	goto	u3981
  4916     008D  288F               	goto	u3980
  4917     008E                     u3981:
  4918     008E  289D               	goto	l3087
  4919     008F                     u3980:
  4920     008F                     l3083:
  4921                           
  4922                           ;FREQ.c: 56:         char* XX = "XX,XXHz";
  4923     008F  3037               	movlw	low (STR_6| (0+32768))
  4924     0090  0021               	movlb	1	; select bank1
  4925     0091  00BC               	movwf	FREQ_Afficher@XX^(0+128)
  4926     0092  3098               	movlw	high (STR_6| (0+32768))
  4927     0093  00BD               	movwf	(FREQ_Afficher@XX^(0+128)+1)
  4928     0094                     l3085:
  4929                           
  4930                           ;FREQ.c: 57:         LCD_Print(LCD_ADD, XX);
  4931     0094  083D               	movf	(FREQ_Afficher@XX+1)^(0+128),w
  4932     0095  00F8               	movwf	LCD_Print@Str+1
  4933     0096  083C               	movf	FREQ_Afficher@XX^(0+128),w
  4934     0097  00F7               	movwf	LCD_Print@Str
  4935     0098  0846               	movf	FREQ_Afficher@LCD_ADD^(0+128),w
  4936     0099  3188  200C  3180   	fcall	_LCD_Print
  4937                           
  4938                           ;FREQ.c: 58:     } else {
  4939     009C  2B5A               	goto	l277
  4940     009D                     l3087:
  4941                           
  4942                           ;FREQ.c: 59:         char d1z = (char)(FRE/10);
  4943     009D  0021               	movlb	1	; select bank1
  4944     009E  0833               	movf	(FREQ_Afficher@FRE+3)^(0+128),w
  4945     009F  0020               	movlb	0	; select bank0
  4946     00A0  00DB               	movwf	___fldiv@b+3
  4947     00A1  0021               	movlb	1	; select bank1
  4948     00A2  0832               	movf	(FREQ_Afficher@FRE+2)^(0+128),w
  4949     00A3  0020               	movlb	0	; select bank0
  4950     00A4  00DA               	movwf	___fldiv@b+2
  4951     00A5  0021               	movlb	1	; select bank1
  4952     00A6  0831               	movf	(FREQ_Afficher@FRE+1)^(0+128),w
  4953     00A7  0020               	movlb	0	; select bank0
  4954     00A8  00D9               	movwf	___fldiv@b+1
  4955     00A9  0021               	movlb	1	; select bank1
  4956     00AA  0830               	movf	FREQ_Afficher@FRE^(0+128),w
  4957     00AB  0020               	movlb	0	; select bank0
  4958     00AC  00D8               	movwf	___fldiv@b
  4959     00AD  3041               	movlw	65
  4960     00AE  00D7               	movwf	___fldiv@a+3
  4961     00AF  3020               	movlw	32
  4962     00B0  00D6               	movwf	___fldiv@a+2
  4963     00B1  3000               	movlw	0
  4964     00B2  00D5               	movwf	___fldiv@a+1
  4965     00B3  3000               	movlw	0
  4966     00B4  00D4               	movwf	___fldiv@a
  4967     00B5  318C  244E  3180   	fcall	___fldiv
  4968     00B8  0020               	movlb	0	; select bank0
  4969     00B9  0857               	movf	?___fldiv+3,w
  4970     00BA  0021               	movlb	1	; select bank1
  4971     00BB  00AB               	movwf	(___fltol@f1+3)^(0+128)
  4972     00BC  0020               	movlb	0	; select bank0
  4973     00BD  0856               	movf	?___fldiv+2,w
  4974     00BE  0021               	movlb	1	; select bank1
  4975     00BF  00AA               	movwf	(___fltol@f1+2)^(0+128)
  4976     00C0  0020               	movlb	0	; select bank0
  4977     00C1  0855               	movf	?___fldiv+1,w
  4978     00C2  0021               	movlb	1	; select bank1
  4979     00C3  00A9               	movwf	(___fltol@f1+1)^(0+128)
  4980     00C4  0020               	movlb	0	; select bank0
  4981     00C5  0854               	movf	?___fldiv,w
  4982     00C6  0021               	movlb	1	; select bank1
  4983     00C7  00A8               	movwf	___fltol@f1^(0+128)
  4984     00C8  3188  20A2  3180   	fcall	___fltol
  4985     00CB  0021               	movlb	1	; select bank1
  4986     00CC  0828               	movf	?___fltol^(0+128),w
  4987     00CD  00C5               	movwf	FREQ_Afficher@d1z^(0+128)
  4988                           
  4989                           ;FREQ.c: 60:         afficherCaractereLCD(LCD_ADD, d1z + 48);
  4990     00CE  0845               	movf	FREQ_Afficher@d1z^(0+128),w
  4991     00CF  3E30               	addlw	48
  4992     00D0  00F4               	movwf	afficherCaractereLCD@donnee
  4993     00D1  0846               	movf	FREQ_Afficher@LCD_ADD^(0+128),w
  4994     00D2  3197  27BE  3180   	fcall	_afficherCaractereLCD
  4995                           
  4996                           ;FREQ.c: 61:         char dec = (char)((FRE/10 - d1z) * 10);
  4997     00D5  0021               	movlb	1	; select bank1
  4998     00D6  0833               	movf	(FREQ_Afficher@FRE+3)^(0+128),w
  4999     00D7  0020               	movlb	0	; select bank0
  5000     00D8  00DB               	movwf	___fldiv@b+3
  5001     00D9  0021               	movlb	1	; select bank1
  5002     00DA  0832               	movf	(FREQ_Afficher@FRE+2)^(0+128),w
  5003     00DB  0020               	movlb	0	; select bank0
  5004     00DC  00DA               	movwf	___fldiv@b+2
  5005     00DD  0021               	movlb	1	; select bank1
  5006     00DE  0831               	movf	(FREQ_Afficher@FRE+1)^(0+128),w
  5007     00DF  0020               	movlb	0	; select bank0
  5008     00E0  00D9               	movwf	___fldiv@b+1
  5009     00E1  0021               	movlb	1	; select bank1
  5010     00E2  0830               	movf	FREQ_Afficher@FRE^(0+128),w
  5011     00E3  0020               	movlb	0	; select bank0
  5012     00E4  00D8               	movwf	___fldiv@b
  5013     00E5  3041               	movlw	65
  5014     00E6  00D7               	movwf	___fldiv@a+3
  5015     00E7  3020               	movlw	32
  5016     00E8  00D6               	movwf	___fldiv@a+2
  5017     00E9  3000               	movlw	0
  5018     00EA  00D5               	movwf	___fldiv@a+1
  5019     00EB  3000               	movlw	0
  5020     00EC  00D4               	movwf	___fldiv@a
  5021     00ED  318C  244E  3180   	fcall	___fldiv
  5022     00F0  0020               	movlb	0	; select bank0
  5023     00F1  0857               	movf	?___fldiv+3,w
  5024     00F2  0021               	movlb	1	; select bank1
  5025     00F3  00A7               	movwf	(___flsub@b+3)^(0+128)
  5026     00F4  0020               	movlb	0	; select bank0
  5027     00F5  0856               	movf	?___fldiv+2,w
  5028     00F6  0021               	movlb	1	; select bank1
  5029     00F7  00A6               	movwf	(___flsub@b+2)^(0+128)
  5030     00F8  0020               	movlb	0	; select bank0
  5031     00F9  0855               	movf	?___fldiv+1,w
  5032     00FA  0021               	movlb	1	; select bank1
  5033     00FB  00A5               	movwf	(___flsub@b+1)^(0+128)
  5034     00FC  0020               	movlb	0	; select bank0
  5035     00FD  0854               	movf	?___fldiv,w
  5036     00FE  0021               	movlb	1	; select bank1
  5037     00FF  00A4               	movwf	___flsub@b^(0+128)
  5038     0100  0845               	movf	FREQ_Afficher@d1z^(0+128),w
  5039     0101  00B4               	movwf	??_FREQ_Afficher^(0+128)
  5040     0102  01B5               	clrf	(??_FREQ_Afficher^(0+128)+1)
  5041     0103  01B6               	clrf	(??_FREQ_Afficher^(0+128)+2)
  5042     0104  01B7               	clrf	(??_FREQ_Afficher^(0+128)+3)
  5043     0105  0837               	movf	(??_FREQ_Afficher+3)^(0+128),w
  5044     0106  00F4               	movwf	___xxtofl@val+3
  5045     0107  0836               	movf	(??_FREQ_Afficher+2)^(0+128),w
  5046     0108  00F3               	movwf	___xxtofl@val+2
  5047     0109  0835               	movf	(??_FREQ_Afficher+1)^(0+128),w
  5048     010A  00F2               	movwf	___xxtofl@val+1
  5049     010B  0834               	movf	??_FREQ_Afficher^(0+128),w
  5050     010C  00F1               	movwf	___xxtofl@val
  5051     010D  3001               	movlw	1
  5052     010E  318A  2219  3180   	fcall	___xxtofl
  5053     0111  0874               	movf	?___xxtofl+3,w
  5054     0112  0021               	movlb	1	; select bank1
  5055     0113  00A3               	movwf	(___flsub@a+3)^(0+128)
  5056     0114  0873               	movf	?___xxtofl+2,w
  5057     0115  00A2               	movwf	(___flsub@a+2)^(0+128)
  5058     0116  0872               	movf	?___xxtofl+1,w
  5059     0117  00A1               	movwf	(___flsub@a+1)^(0+128)
  5060     0118  0871               	movf	?___xxtofl,w
  5061     0119  00A0               	movwf	___flsub@a^(0+128)
  5062     011A  3197  2752  3180   	fcall	___flsub
  5063     011D  0021               	movlb	1	; select bank1
  5064     011E  0823               	movf	(?___flsub+3)^(0+128),w
  5065     011F  0020               	movlb	0	; select bank0
  5066     0120  00C1               	movwf	___flmul@a+3
  5067     0121  0021               	movlb	1	; select bank1
  5068     0122  0822               	movf	(?___flsub+2)^(0+128),w
  5069     0123  0020               	movlb	0	; select bank0
  5070     0124  00C0               	movwf	___flmul@a+2
  5071     0125  0021               	movlb	1	; select bank1
  5072     0126  0821               	movf	(?___flsub+1)^(0+128),w
  5073     0127  0020               	movlb	0	; select bank0
  5074     0128  00BF               	movwf	___flmul@a+1
  5075     0129  0021               	movlb	1	; select bank1
  5076     012A  0820               	movf	?___flsub^(0+128),w
  5077     012B  0020               	movlb	0	; select bank0
  5078     012C  00BE               	movwf	___flmul@a
  5079     012D  3041               	movlw	65
  5080     012E  00BD               	movwf	___flmul@b+3
  5081     012F  3020               	movlw	32
  5082     0130  00BC               	movwf	___flmul@b+2
  5083     0131  3000               	movlw	0
  5084     0132  00BB               	movwf	___flmul@b+1
  5085     0133  3000               	movlw	0
  5086     0134  00BA               	movwf	___flmul@b
  5087     0135  3183  235B  3180   	fcall	___flmul
  5088     0138  0020               	movlb	0	; select bank0
  5089     0139  083D               	movf	?___flmul+3,w
  5090     013A  0021               	movlb	1	; select bank1
  5091     013B  00AB               	movwf	(___fltol@f1+3)^(0+128)
  5092     013C  0020               	movlb	0	; select bank0
  5093     013D  083C               	movf	?___flmul+2,w
  5094     013E  0021               	movlb	1	; select bank1
  5095     013F  00AA               	movwf	(___fltol@f1+2)^(0+128)
  5096     0140  0020               	movlb	0	; select bank0
  5097     0141  083B               	movf	?___flmul+1,w
  5098     0142  0021               	movlb	1	; select bank1
  5099     0143  00A9               	movwf	(___fltol@f1+1)^(0+128)
  5100     0144  0020               	movlb	0	; select bank0
  5101     0145  083A               	movf	?___flmul,w
  5102     0146  0021               	movlb	1	; select bank1
  5103     0147  00A8               	movwf	___fltol@f1^(0+128)
  5104     0148  3188  20A2  3180   	fcall	___fltol
  5105     014B  0021               	movlb	1	; select bank1
  5106     014C  0828               	movf	?___fltol^(0+128),w
  5107     014D  00C4               	movwf	FREQ_Afficher@dec^(0+128)
  5108                           
  5109                           ;FREQ.c: 62:         afficherCaractereLCD(LCD_ADD, dec + 48);
  5110     014E  0844               	movf	FREQ_Afficher@dec^(0+128),w
  5111     014F  3E30               	addlw	48
  5112     0150  00F4               	movwf	afficherCaractereLCD@donnee
  5113     0151  0846               	movf	FREQ_Afficher@LCD_ADD^(0+128),w
  5114     0152  3197  27BE  3180   	fcall	_afficherCaractereLCD
  5115                           
  5116                           ;FREQ.c: 63:         afficherCaractereLCD(LCD_ADD, ',');
  5117     0155  302C               	movlw	44
  5118     0156  00F4               	movwf	afficherCaractereLCD@donnee
  5119     0157  0021               	movlb	1	; select bank1
  5120     0158  0846               	movf	FREQ_Afficher@LCD_ADD^(0+128),w
  5121     0159  3197  27BE  3180   	fcall	_afficherCaractereLCD
  5122                           
  5123                           ;FREQ.c: 65:         char dix = (char)((((FRE/10) - d1z)*10 - dec) * 10);
  5124     015C  0021               	movlb	1	; select bank1
  5125     015D  0833               	movf	(FREQ_Afficher@FRE+3)^(0+128),w
  5126     015E  0020               	movlb	0	; select bank0
  5127     015F  00DB               	movwf	___fldiv@b+3
  5128     0160  0021               	movlb	1	; select bank1
  5129     0161  0832               	movf	(FREQ_Afficher@FRE+2)^(0+128),w
  5130     0162  0020               	movlb	0	; select bank0
  5131     0163  00DA               	movwf	___fldiv@b+2
  5132     0164  0021               	movlb	1	; select bank1
  5133     0165  0831               	movf	(FREQ_Afficher@FRE+1)^(0+128),w
  5134     0166  0020               	movlb	0	; select bank0
  5135     0167  00D9               	movwf	___fldiv@b+1
  5136     0168  0021               	movlb	1	; select bank1
  5137     0169  0830               	movf	FREQ_Afficher@FRE^(0+128),w
  5138     016A  0020               	movlb	0	; select bank0
  5139     016B  00D8               	movwf	___fldiv@b
  5140     016C  3041               	movlw	65
  5141     016D  00D7               	movwf	___fldiv@a+3
  5142     016E  3020               	movlw	32
  5143     016F  00D6               	movwf	___fldiv@a+2
  5144     0170  3000               	movlw	0
  5145     0171  00D5               	movwf	___fldiv@a+1
  5146     0172  3000               	movlw	0
  5147     0173  00D4               	movwf	___fldiv@a
  5148     0174  318C  244E  3180   	fcall	___fldiv
  5149     0177  0020               	movlb	0	; select bank0
  5150     0178  0857               	movf	?___fldiv+3,w
  5151     0179  0021               	movlb	1	; select bank1
  5152     017A  00A7               	movwf	(___flsub@b+3)^(0+128)
  5153     017B  0020               	movlb	0	; select bank0
  5154     017C  0856               	movf	?___fldiv+2,w
  5155     017D  0021               	movlb	1	; select bank1
  5156     017E  00A6               	movwf	(___flsub@b+2)^(0+128)
  5157     017F  0020               	movlb	0	; select bank0
  5158     0180  0855               	movf	?___fldiv+1,w
  5159     0181  0021               	movlb	1	; select bank1
  5160     0182  00A5               	movwf	(___flsub@b+1)^(0+128)
  5161     0183  0020               	movlb	0	; select bank0
  5162     0184  0854               	movf	?___fldiv,w
  5163     0185  0021               	movlb	1	; select bank1
  5164     0186  00A4               	movwf	___flsub@b^(0+128)
  5165     0187  0845               	movf	FREQ_Afficher@d1z^(0+128),w
  5166     0188  00B4               	movwf	??_FREQ_Afficher^(0+128)
  5167     0189  01B5               	clrf	(??_FREQ_Afficher^(0+128)+1)
  5168     018A  01B6               	clrf	(??_FREQ_Afficher^(0+128)+2)
  5169     018B  01B7               	clrf	(??_FREQ_Afficher^(0+128)+3)
  5170     018C  0837               	movf	(??_FREQ_Afficher+3)^(0+128),w
  5171     018D  00F4               	movwf	___xxtofl@val+3
  5172     018E  0836               	movf	(??_FREQ_Afficher+2)^(0+128),w
  5173     018F  00F3               	movwf	___xxtofl@val+2
  5174     0190  0835               	movf	(??_FREQ_Afficher+1)^(0+128),w
  5175     0191  00F2               	movwf	___xxtofl@val+1
  5176     0192  0834               	movf	??_FREQ_Afficher^(0+128),w
  5177     0193  00F1               	movwf	___xxtofl@val
  5178     0194  3001               	movlw	1
  5179     0195  318A  2219  3180   	fcall	___xxtofl
  5180     0198  0874               	movf	?___xxtofl+3,w
  5181     0199  0021               	movlb	1	; select bank1
  5182     019A  00A3               	movwf	(___flsub@a+3)^(0+128)
  5183     019B  0873               	movf	?___xxtofl+2,w
  5184     019C  00A2               	movwf	(___flsub@a+2)^(0+128)
  5185     019D  0872               	movf	?___xxtofl+1,w
  5186     019E  00A1               	movwf	(___flsub@a+1)^(0+128)
  5187     019F  0871               	movf	?___xxtofl,w
  5188     01A0  00A0               	movwf	___flsub@a^(0+128)
  5189     01A1  3197  2752  3180   	fcall	___flsub
  5190     01A4  0021               	movlb	1	; select bank1
  5191     01A5  0823               	movf	(?___flsub+3)^(0+128),w
  5192     01A6  0020               	movlb	0	; select bank0
  5193     01A7  00C1               	movwf	___flmul@a+3
  5194     01A8  0021               	movlb	1	; select bank1
  5195     01A9  0822               	movf	(?___flsub+2)^(0+128),w
  5196     01AA  0020               	movlb	0	; select bank0
  5197     01AB  00C0               	movwf	___flmul@a+2
  5198     01AC  0021               	movlb	1	; select bank1
  5199     01AD  0821               	movf	(?___flsub+1)^(0+128),w
  5200     01AE  0020               	movlb	0	; select bank0
  5201     01AF  00BF               	movwf	___flmul@a+1
  5202     01B0  0021               	movlb	1	; select bank1
  5203     01B1  0820               	movf	?___flsub^(0+128),w
  5204     01B2  0020               	movlb	0	; select bank0
  5205     01B3  00BE               	movwf	___flmul@a
  5206     01B4  3041               	movlw	65
  5207     01B5  00BD               	movwf	___flmul@b+3
  5208     01B6  3020               	movlw	32
  5209     01B7  00BC               	movwf	___flmul@b+2
  5210     01B8  3000               	movlw	0
  5211     01B9  00BB               	movwf	___flmul@b+1
  5212     01BA  3000               	movlw	0
  5213     01BB  00BA               	movwf	___flmul@b
  5214     01BC  3183  235B  3180   	fcall	___flmul
  5215     01BF  0020               	movlb	0	; select bank0
  5216     01C0  083D               	movf	?___flmul+3,w
  5217     01C1  0021               	movlb	1	; select bank1
  5218     01C2  00C2               	movwf	(_FREQ_Afficher$1347+3)^(0+128)
  5219     01C3  0020               	movlb	0	; select bank0
  5220     01C4  083C               	movf	?___flmul+2,w
  5221     01C5  0021               	movlb	1	; select bank1
  5222     01C6  00C1               	movwf	(_FREQ_Afficher$1347+2)^(0+128)
  5223     01C7  0020               	movlb	0	; select bank0
  5224     01C8  083B               	movf	?___flmul+1,w
  5225     01C9  0021               	movlb	1	; select bank1
  5226     01CA  00C0               	movwf	(_FREQ_Afficher$1347+1)^(0+128)
  5227     01CB  0020               	movlb	0	; select bank0
  5228     01CC  083A               	movf	?___flmul,w
  5229     01CD  0021               	movlb	1	; select bank1
  5230     01CE  00BF               	movwf	_FREQ_Afficher$1347^(0+128)
  5231                           
  5232                           ;FREQ.c: 65:         char dix = (char)((((FRE/10) - d1z)*10 - dec) * 10);
  5233     01CF  0842               	movf	(_FREQ_Afficher$1347+3)^(0+128),w
  5234     01D0  00A7               	movwf	(___flsub@b+3)^(0+128)
  5235     01D1  0841               	movf	(_FREQ_Afficher$1347+2)^(0+128),w
  5236     01D2  00A6               	movwf	(___flsub@b+2)^(0+128)
  5237     01D3  0840               	movf	(_FREQ_Afficher$1347+1)^(0+128),w
  5238     01D4  00A5               	movwf	(___flsub@b+1)^(0+128)
  5239     01D5  083F               	movf	_FREQ_Afficher$1347^(0+128),w
  5240     01D6  00A4               	movwf	___flsub@b^(0+128)
  5241     01D7  0844               	movf	FREQ_Afficher@dec^(0+128),w
  5242     01D8  00B4               	movwf	??_FREQ_Afficher^(0+128)
  5243     01D9  01B5               	clrf	(??_FREQ_Afficher^(0+128)+1)
  5244     01DA  01B6               	clrf	(??_FREQ_Afficher^(0+128)+2)
  5245     01DB  01B7               	clrf	(??_FREQ_Afficher^(0+128)+3)
  5246     01DC  0837               	movf	(??_FREQ_Afficher+3)^(0+128),w
  5247     01DD  00F4               	movwf	___xxtofl@val+3
  5248     01DE  0836               	movf	(??_FREQ_Afficher+2)^(0+128),w
  5249     01DF  00F3               	movwf	___xxtofl@val+2
  5250     01E0  0835               	movf	(??_FREQ_Afficher+1)^(0+128),w
  5251     01E1  00F2               	movwf	___xxtofl@val+1
  5252     01E2  0834               	movf	??_FREQ_Afficher^(0+128),w
  5253     01E3  00F1               	movwf	___xxtofl@val
  5254     01E4  3001               	movlw	1
  5255     01E5  318A  2219  3180   	fcall	___xxtofl
  5256     01E8  0874               	movf	?___xxtofl+3,w
  5257     01E9  0021               	movlb	1	; select bank1
  5258     01EA  00A3               	movwf	(___flsub@a+3)^(0+128)
  5259     01EB  0873               	movf	?___xxtofl+2,w
  5260     01EC  00A2               	movwf	(___flsub@a+2)^(0+128)
  5261     01ED  0872               	movf	?___xxtofl+1,w
  5262     01EE  00A1               	movwf	(___flsub@a+1)^(0+128)
  5263     01EF  0871               	movf	?___xxtofl,w
  5264     01F0  00A0               	movwf	___flsub@a^(0+128)
  5265     01F1  3197  2752  3180   	fcall	___flsub
  5266     01F4  0021               	movlb	1	; select bank1
  5267     01F5  0823               	movf	(?___flsub+3)^(0+128),w
  5268     01F6  0020               	movlb	0	; select bank0
  5269     01F7  00C1               	movwf	___flmul@a+3
  5270     01F8  0021               	movlb	1	; select bank1
  5271     01F9  0822               	movf	(?___flsub+2)^(0+128),w
  5272     01FA  0020               	movlb	0	; select bank0
  5273     01FB  00C0               	movwf	___flmul@a+2
  5274     01FC  0021               	movlb	1	; select bank1
  5275     01FD  0821               	movf	(?___flsub+1)^(0+128),w
  5276     01FE  0020               	movlb	0	; select bank0
  5277     01FF  00BF               	movwf	___flmul@a+1
  5278     0200  0021               	movlb	1	; select bank1
  5279     0201  0820               	movf	?___flsub^(0+128),w
  5280     0202  0020               	movlb	0	; select bank0
  5281     0203  00BE               	movwf	___flmul@a
  5282     0204  3041               	movlw	65
  5283     0205  00BD               	movwf	___flmul@b+3
  5284     0206  3020               	movlw	32
  5285     0207  00BC               	movwf	___flmul@b+2
  5286     0208  3000               	movlw	0
  5287     0209  00BB               	movwf	___flmul@b+1
  5288     020A  3000               	movlw	0
  5289     020B  00BA               	movwf	___flmul@b
  5290     020C  3183  235B  3180   	fcall	___flmul
  5291     020F  0020               	movlb	0	; select bank0
  5292     0210  083D               	movf	?___flmul+3,w
  5293     0211  0021               	movlb	1	; select bank1
  5294     0212  00AB               	movwf	(___fltol@f1+3)^(0+128)
  5295     0213  0020               	movlb	0	; select bank0
  5296     0214  083C               	movf	?___flmul+2,w
  5297     0215  0021               	movlb	1	; select bank1
  5298     0216  00AA               	movwf	(___fltol@f1+2)^(0+128)
  5299     0217  0020               	movlb	0	; select bank0
  5300     0218  083B               	movf	?___flmul+1,w
  5301     0219  0021               	movlb	1	; select bank1
  5302     021A  00A9               	movwf	(___fltol@f1+1)^(0+128)
  5303     021B  0020               	movlb	0	; select bank0
  5304     021C  083A               	movf	?___flmul,w
  5305     021D  0021               	movlb	1	; select bank1
  5306     021E  00A8               	movwf	___fltol@f1^(0+128)
  5307     021F  3188  20A2  3180   	fcall	___fltol
  5308     0222  0021               	movlb	1	; select bank1
  5309     0223  0828               	movf	?___fltol^(0+128),w
  5310     0224  00C3               	movwf	FREQ_Afficher@dix^(0+128)
  5311                           
  5312                           ;FREQ.c: 66:         afficherCaractereLCD(LCD_ADD, dix + 48);
  5313     0225  0843               	movf	FREQ_Afficher@dix^(0+128),w
  5314     0226  3E30               	addlw	48
  5315     0227  00F4               	movwf	afficherCaractereLCD@donnee
  5316     0228  0846               	movf	FREQ_Afficher@LCD_ADD^(0+128),w
  5317     0229  3197  27BE  3180   	fcall	_afficherCaractereLCD
  5318                           
  5319                           ;FREQ.c: 67:         char cen = (char)((((FRE/10 - d1z)*10 - dec) * 10 - dix)*10);
  5320     022C  0021               	movlb	1	; select bank1
  5321     022D  0833               	movf	(FREQ_Afficher@FRE+3)^(0+128),w
  5322     022E  0020               	movlb	0	; select bank0
  5323     022F  00DB               	movwf	___fldiv@b+3
  5324     0230  0021               	movlb	1	; select bank1
  5325     0231  0832               	movf	(FREQ_Afficher@FRE+2)^(0+128),w
  5326     0232  0020               	movlb	0	; select bank0
  5327     0233  00DA               	movwf	___fldiv@b+2
  5328     0234  0021               	movlb	1	; select bank1
  5329     0235  0831               	movf	(FREQ_Afficher@FRE+1)^(0+128),w
  5330     0236  0020               	movlb	0	; select bank0
  5331     0237  00D9               	movwf	___fldiv@b+1
  5332     0238  0021               	movlb	1	; select bank1
  5333     0239  0830               	movf	FREQ_Afficher@FRE^(0+128),w
  5334     023A  0020               	movlb	0	; select bank0
  5335     023B  00D8               	movwf	___fldiv@b
  5336     023C  3041               	movlw	65
  5337     023D  00D7               	movwf	___fldiv@a+3
  5338     023E  3020               	movlw	32
  5339     023F  00D6               	movwf	___fldiv@a+2
  5340     0240  3000               	movlw	0
  5341     0241  00D5               	movwf	___fldiv@a+1
  5342     0242  3000               	movlw	0
  5343     0243  00D4               	movwf	___fldiv@a
  5344     0244  318C  244E  3180   	fcall	___fldiv
  5345     0247  0020               	movlb	0	; select bank0
  5346     0248  0857               	movf	?___fldiv+3,w
  5347     0249  0021               	movlb	1	; select bank1
  5348     024A  00A7               	movwf	(___flsub@b+3)^(0+128)
  5349     024B  0020               	movlb	0	; select bank0
  5350     024C  0856               	movf	?___fldiv+2,w
  5351     024D  0021               	movlb	1	; select bank1
  5352     024E  00A6               	movwf	(___flsub@b+2)^(0+128)
  5353     024F  0020               	movlb	0	; select bank0
  5354     0250  0855               	movf	?___fldiv+1,w
  5355     0251  0021               	movlb	1	; select bank1
  5356     0252  00A5               	movwf	(___flsub@b+1)^(0+128)
  5357     0253  0020               	movlb	0	; select bank0
  5358     0254  0854               	movf	?___fldiv,w
  5359     0255  0021               	movlb	1	; select bank1
  5360     0256  00A4               	movwf	___flsub@b^(0+128)
  5361     0257  0845               	movf	FREQ_Afficher@d1z^(0+128),w
  5362     0258  00B4               	movwf	??_FREQ_Afficher^(0+128)
  5363     0259  01B5               	clrf	(??_FREQ_Afficher^(0+128)+1)
  5364     025A  01B6               	clrf	(??_FREQ_Afficher^(0+128)+2)
  5365     025B  01B7               	clrf	(??_FREQ_Afficher^(0+128)+3)
  5366     025C  0837               	movf	(??_FREQ_Afficher+3)^(0+128),w
  5367     025D  00F4               	movwf	___xxtofl@val+3
  5368     025E  0836               	movf	(??_FREQ_Afficher+2)^(0+128),w
  5369     025F  00F3               	movwf	___xxtofl@val+2
  5370     0260  0835               	movf	(??_FREQ_Afficher+1)^(0+128),w
  5371     0261  00F2               	movwf	___xxtofl@val+1
  5372     0262  0834               	movf	??_FREQ_Afficher^(0+128),w
  5373     0263  00F1               	movwf	___xxtofl@val
  5374     0264  3001               	movlw	1
  5375     0265  318A  2219  3180   	fcall	___xxtofl
  5376     0268  0874               	movf	?___xxtofl+3,w
  5377     0269  0021               	movlb	1	; select bank1
  5378     026A  00A3               	movwf	(___flsub@a+3)^(0+128)
  5379     026B  0873               	movf	?___xxtofl+2,w
  5380     026C  00A2               	movwf	(___flsub@a+2)^(0+128)
  5381     026D  0872               	movf	?___xxtofl+1,w
  5382     026E  00A1               	movwf	(___flsub@a+1)^(0+128)
  5383     026F  0871               	movf	?___xxtofl,w
  5384     0270  00A0               	movwf	___flsub@a^(0+128)
  5385     0271  3197  2752  3180   	fcall	___flsub
  5386     0274  0021               	movlb	1	; select bank1
  5387     0275  0823               	movf	(?___flsub+3)^(0+128),w
  5388     0276  0020               	movlb	0	; select bank0
  5389     0277  00C1               	movwf	___flmul@a+3
  5390     0278  0021               	movlb	1	; select bank1
  5391     0279  0822               	movf	(?___flsub+2)^(0+128),w
  5392     027A  0020               	movlb	0	; select bank0
  5393     027B  00C0               	movwf	___flmul@a+2
  5394     027C  0021               	movlb	1	; select bank1
  5395     027D  0821               	movf	(?___flsub+1)^(0+128),w
  5396     027E  0020               	movlb	0	; select bank0
  5397     027F  00BF               	movwf	___flmul@a+1
  5398     0280  0021               	movlb	1	; select bank1
  5399     0281  0820               	movf	?___flsub^(0+128),w
  5400     0282  0020               	movlb	0	; select bank0
  5401     0283  00BE               	movwf	___flmul@a
  5402     0284  3041               	movlw	65
  5403     0285  00BD               	movwf	___flmul@b+3
  5404     0286  3020               	movlw	32
  5405     0287  00BC               	movwf	___flmul@b+2
  5406     0288  3000               	movlw	0
  5407     0289  00BB               	movwf	___flmul@b+1
  5408     028A  3000               	movlw	0
  5409     028B  00BA               	movwf	___flmul@b
  5410     028C  3183  235B  3180   	fcall	___flmul
  5411     028F  0020               	movlb	0	; select bank0
  5412     0290  083D               	movf	?___flmul+3,w
  5413     0291  0021               	movlb	1	; select bank1
  5414     0292  00C2               	movwf	(_FREQ_Afficher$1347+3)^(0+128)
  5415     0293  0020               	movlb	0	; select bank0
  5416     0294  083C               	movf	?___flmul+2,w
  5417     0295  0021               	movlb	1	; select bank1
  5418     0296  00C1               	movwf	(_FREQ_Afficher$1347+2)^(0+128)
  5419     0297  0020               	movlb	0	; select bank0
  5420     0298  083B               	movf	?___flmul+1,w
  5421     0299  0021               	movlb	1	; select bank1
  5422     029A  00C0               	movwf	(_FREQ_Afficher$1347+1)^(0+128)
  5423     029B  0020               	movlb	0	; select bank0
  5424     029C  083A               	movf	?___flmul,w
  5425     029D  0021               	movlb	1	; select bank1
  5426     029E  00BF               	movwf	_FREQ_Afficher$1347^(0+128)
  5427                           
  5428                           ;FREQ.c: 67:         char cen = (char)((((FRE/10 - d1z)*10 - dec) * 10 - dix)*10);
  5429     029F  0842               	movf	(_FREQ_Afficher$1347+3)^(0+128),w
  5430     02A0  00A7               	movwf	(___flsub@b+3)^(0+128)
  5431     02A1  0841               	movf	(_FREQ_Afficher$1347+2)^(0+128),w
  5432     02A2  00A6               	movwf	(___flsub@b+2)^(0+128)
  5433     02A3  0840               	movf	(_FREQ_Afficher$1347+1)^(0+128),w
  5434     02A4  00A5               	movwf	(___flsub@b+1)^(0+128)
  5435     02A5  083F               	movf	_FREQ_Afficher$1347^(0+128),w
  5436     02A6  00A4               	movwf	___flsub@b^(0+128)
  5437     02A7  0844               	movf	FREQ_Afficher@dec^(0+128),w
  5438     02A8  00B4               	movwf	??_FREQ_Afficher^(0+128)
  5439     02A9  01B5               	clrf	(??_FREQ_Afficher^(0+128)+1)
  5440     02AA  01B6               	clrf	(??_FREQ_Afficher^(0+128)+2)
  5441     02AB  01B7               	clrf	(??_FREQ_Afficher^(0+128)+3)
  5442     02AC  0837               	movf	(??_FREQ_Afficher+3)^(0+128),w
  5443     02AD  00F4               	movwf	___xxtofl@val+3
  5444     02AE  0836               	movf	(??_FREQ_Afficher+2)^(0+128),w
  5445     02AF  00F3               	movwf	___xxtofl@val+2
  5446     02B0  0835               	movf	(??_FREQ_Afficher+1)^(0+128),w
  5447     02B1  00F2               	movwf	___xxtofl@val+1
  5448     02B2  0834               	movf	??_FREQ_Afficher^(0+128),w
  5449     02B3  00F1               	movwf	___xxtofl@val
  5450     02B4  3001               	movlw	1
  5451     02B5  318A  2219  3180   	fcall	___xxtofl
  5452     02B8  0874               	movf	?___xxtofl+3,w
  5453     02B9  0021               	movlb	1	; select bank1
  5454     02BA  00A3               	movwf	(___flsub@a+3)^(0+128)
  5455     02BB  0873               	movf	?___xxtofl+2,w
  5456     02BC  00A2               	movwf	(___flsub@a+2)^(0+128)
  5457     02BD  0872               	movf	?___xxtofl+1,w
  5458     02BE  00A1               	movwf	(___flsub@a+1)^(0+128)
  5459     02BF  0871               	movf	?___xxtofl,w
  5460     02C0  00A0               	movwf	___flsub@a^(0+128)
  5461     02C1  3197  2752  3180   	fcall	___flsub
  5462     02C4  0021               	movlb	1	; select bank1
  5463     02C5  0823               	movf	(?___flsub+3)^(0+128),w
  5464     02C6  0020               	movlb	0	; select bank0
  5465     02C7  00C1               	movwf	___flmul@a+3
  5466     02C8  0021               	movlb	1	; select bank1
  5467     02C9  0822               	movf	(?___flsub+2)^(0+128),w
  5468     02CA  0020               	movlb	0	; select bank0
  5469     02CB  00C0               	movwf	___flmul@a+2
  5470     02CC  0021               	movlb	1	; select bank1
  5471     02CD  0821               	movf	(?___flsub+1)^(0+128),w
  5472     02CE  0020               	movlb	0	; select bank0
  5473     02CF  00BF               	movwf	___flmul@a+1
  5474     02D0  0021               	movlb	1	; select bank1
  5475     02D1  0820               	movf	?___flsub^(0+128),w
  5476     02D2  0020               	movlb	0	; select bank0
  5477     02D3  00BE               	movwf	___flmul@a
  5478     02D4  3041               	movlw	65
  5479     02D5  00BD               	movwf	___flmul@b+3
  5480     02D6  3020               	movlw	32
  5481     02D7  00BC               	movwf	___flmul@b+2
  5482     02D8  3000               	movlw	0
  5483     02D9  00BB               	movwf	___flmul@b+1
  5484     02DA  3000               	movlw	0
  5485     02DB  00BA               	movwf	___flmul@b
  5486     02DC  3183  235B  3180   	fcall	___flmul
  5487     02DF  0020               	movlb	0	; select bank0
  5488     02E0  083D               	movf	?___flmul+3,w
  5489     02E1  0021               	movlb	1	; select bank1
  5490     02E2  00BB               	movwf	(_FREQ_Afficher$1348+3)^(0+128)
  5491     02E3  0020               	movlb	0	; select bank0
  5492     02E4  083C               	movf	?___flmul+2,w
  5493     02E5  0021               	movlb	1	; select bank1
  5494     02E6  00BA               	movwf	(_FREQ_Afficher$1348+2)^(0+128)
  5495     02E7  0020               	movlb	0	; select bank0
  5496     02E8  083B               	movf	?___flmul+1,w
  5497     02E9  0021               	movlb	1	; select bank1
  5498     02EA  00B9               	movwf	(_FREQ_Afficher$1348+1)^(0+128)
  5499     02EB  0020               	movlb	0	; select bank0
  5500     02EC  083A               	movf	?___flmul,w
  5501     02ED  0021               	movlb	1	; select bank1
  5502     02EE  00B8               	movwf	_FREQ_Afficher$1348^(0+128)
  5503                           
  5504                           ;FREQ.c: 67:         char cen = (char)((((FRE/10 - d1z)*10 - dec) * 10 - dix)*10);
  5505     02EF  083B               	movf	(_FREQ_Afficher$1348+3)^(0+128),w
  5506     02F0  00A7               	movwf	(___flsub@b+3)^(0+128)
  5507     02F1  083A               	movf	(_FREQ_Afficher$1348+2)^(0+128),w
  5508     02F2  00A6               	movwf	(___flsub@b+2)^(0+128)
  5509     02F3  0839               	movf	(_FREQ_Afficher$1348+1)^(0+128),w
  5510     02F4  00A5               	movwf	(___flsub@b+1)^(0+128)
  5511     02F5  0838               	movf	_FREQ_Afficher$1348^(0+128),w
  5512     02F6  00A4               	movwf	___flsub@b^(0+128)
  5513     02F7  0843               	movf	FREQ_Afficher@dix^(0+128),w
  5514     02F8  00B4               	movwf	??_FREQ_Afficher^(0+128)
  5515     02F9  01B5               	clrf	(??_FREQ_Afficher^(0+128)+1)
  5516     02FA  01B6               	clrf	(??_FREQ_Afficher^(0+128)+2)
  5517     02FB  01B7               	clrf	(??_FREQ_Afficher^(0+128)+3)
  5518     02FC  0837               	movf	(??_FREQ_Afficher+3)^(0+128),w
  5519     02FD  00F4               	movwf	___xxtofl@val+3
  5520     02FE  0836               	movf	(??_FREQ_Afficher+2)^(0+128),w
  5521     02FF  00F3               	movwf	___xxtofl@val+2
  5522     0300  0835               	movf	(??_FREQ_Afficher+1)^(0+128),w
  5523     0301  00F2               	movwf	___xxtofl@val+1
  5524     0302  0834               	movf	??_FREQ_Afficher^(0+128),w
  5525     0303  00F1               	movwf	___xxtofl@val
  5526     0304  3001               	movlw	1
  5527     0305  318A  2219  3180   	fcall	___xxtofl
  5528     0308  0874               	movf	?___xxtofl+3,w
  5529     0309  0021               	movlb	1	; select bank1
  5530     030A  00A3               	movwf	(___flsub@a+3)^(0+128)
  5531     030B  0873               	movf	?___xxtofl+2,w
  5532     030C  00A2               	movwf	(___flsub@a+2)^(0+128)
  5533     030D  0872               	movf	?___xxtofl+1,w
  5534     030E  00A1               	movwf	(___flsub@a+1)^(0+128)
  5535     030F  0871               	movf	?___xxtofl,w
  5536     0310  00A0               	movwf	___flsub@a^(0+128)
  5537     0311  3197  2752  3180   	fcall	___flsub
  5538     0314  0021               	movlb	1	; select bank1
  5539     0315  0823               	movf	(?___flsub+3)^(0+128),w
  5540     0316  0020               	movlb	0	; select bank0
  5541     0317  00C1               	movwf	___flmul@a+3
  5542     0318  0021               	movlb	1	; select bank1
  5543     0319  0822               	movf	(?___flsub+2)^(0+128),w
  5544     031A  0020               	movlb	0	; select bank0
  5545     031B  00C0               	movwf	___flmul@a+2
  5546     031C  0021               	movlb	1	; select bank1
  5547     031D  0821               	movf	(?___flsub+1)^(0+128),w
  5548     031E  0020               	movlb	0	; select bank0
  5549     031F  00BF               	movwf	___flmul@a+1
  5550     0320  0021               	movlb	1	; select bank1
  5551     0321  0820               	movf	?___flsub^(0+128),w
  5552     0322  0020               	movlb	0	; select bank0
  5553     0323  00BE               	movwf	___flmul@a
  5554     0324  3041               	movlw	65
  5555     0325  00BD               	movwf	___flmul@b+3
  5556     0326  3020               	movlw	32
  5557     0327  00BC               	movwf	___flmul@b+2
  5558     0328  3000               	movlw	0
  5559     0329  00BB               	movwf	___flmul@b+1
  5560     032A  3000               	movlw	0
  5561     032B  00BA               	movwf	___flmul@b
  5562     032C  3183  235B  3180   	fcall	___flmul
  5563     032F  0020               	movlb	0	; select bank0
  5564     0330  083D               	movf	?___flmul+3,w
  5565     0331  0021               	movlb	1	; select bank1
  5566     0332  00AB               	movwf	(___fltol@f1+3)^(0+128)
  5567     0333  0020               	movlb	0	; select bank0
  5568     0334  083C               	movf	?___flmul+2,w
  5569     0335  0021               	movlb	1	; select bank1
  5570     0336  00AA               	movwf	(___fltol@f1+2)^(0+128)
  5571     0337  0020               	movlb	0	; select bank0
  5572     0338  083B               	movf	?___flmul+1,w
  5573     0339  0021               	movlb	1	; select bank1
  5574     033A  00A9               	movwf	(___fltol@f1+1)^(0+128)
  5575     033B  0020               	movlb	0	; select bank0
  5576     033C  083A               	movf	?___flmul,w
  5577     033D  0021               	movlb	1	; select bank1
  5578     033E  00A8               	movwf	___fltol@f1^(0+128)
  5579     033F  3188  20A2  3180   	fcall	___fltol
  5580     0342  0021               	movlb	1	; select bank1
  5581     0343  0828               	movf	?___fltol^(0+128),w
  5582     0344  00BE               	movwf	FREQ_Afficher@cen^(0+128)
  5583                           
  5584                           ;FREQ.c: 68:         afficherCaractereLCD(LCD_ADD, cen + 48);
  5585     0345  083E               	movf	FREQ_Afficher@cen^(0+128),w
  5586     0346  3E30               	addlw	48
  5587     0347  00F4               	movwf	afficherCaractereLCD@donnee
  5588     0348  0846               	movf	FREQ_Afficher@LCD_ADD^(0+128),w
  5589     0349  3197  27BE  3180   	fcall	_afficherCaractereLCD
  5590                           
  5591                           ;FREQ.c: 70:         afficherCaractereLCD(LCD_ADD, 'H');
  5592     034C  3048               	movlw	72
  5593     034D  00F4               	movwf	afficherCaractereLCD@donnee
  5594     034E  0021               	movlb	1	; select bank1
  5595     034F  0846               	movf	FREQ_Afficher@LCD_ADD^(0+128),w
  5596     0350  3197  27BE  3180   	fcall	_afficherCaractereLCD
  5597                           
  5598                           ;FREQ.c: 71:         afficherCaractereLCD(LCD_ADD, 'z');
  5599     0353  307A               	movlw	122
  5600     0354  00F4               	movwf	afficherCaractereLCD@donnee
  5601     0355  0021               	movlb	1	; select bank1
  5602     0356  0846               	movf	FREQ_Afficher@LCD_ADD^(0+128),w
  5603     0357  3197  27BE  3180   	fcall	_afficherCaractereLCD
  5604     035A                     l277:
  5605     035A  0008               	return
  5606     035B                     __end_of_FREQ_Afficher:
  5607                           
  5608                           	psect	text11
  5609     098E                     __ptext11:	
  5610 ;; *************** function ___flge *****************
  5611 ;; Defined at:
  5612 ;;		line 4 in file "C:\Program Files\Microchip\xc8\v2.40\pic\sources\c99\common\flge.c"
  5613 ;; Parameters:    Size  Location     Type
  5614 ;;  ff1             4    1[COMMON] void 
  5615 ;;  ff2             4    5[COMMON] void 
  5616 ;; Auto vars:     Size  Location     Type
  5617 ;;		None
  5618 ;; Return value:  Size  Location     Type
  5619 ;;		None               void
  5620 ;; Registers used:
  5621 ;;		wreg, status,2, status,0
  5622 ;; Tracked objects:
  5623 ;;		On entry : 0/0
  5624 ;;		On exit  : 0/0
  5625 ;;		Unchanged: 0/0
  5626 ;; Data sizes:     COMMON   BANK0   BANK1   BANK2   BANK3   BANK4   BANK5   BANK6   BANK7   BANK8   BANK9  BANK10  BANK1
      +1  BANK12
  5627 ;;      Params:         8       0       0       0       0       0       0       0       0       0       0       0       
      +0       0
  5628 ;;      Locals:         0       0       0       0       0       0       0       0       0       0       0       0       
      +0       0
  5629 ;;      Temps:          0       4       0       0       0       0       0       0       0       0       0       0       
      +0       0
  5630 ;;      Totals:         8       4       0       0       0       0       0       0       0       0       0       0       
      +0       0
  5631 ;;Total ram usage:       12 bytes
  5632 ;; Hardware stack levels used: 1
  5633 ;; Hardware stack levels required when called: 1
  5634 ;; This function calls:
  5635 ;;		Nothing
  5636 ;; This function is called by:
  5637 ;;		_FREQ_Afficher
  5638 ;; This function uses a non-reentrant model
  5639 ;;
  5640                           
  5641     098E                     ___flge:	
  5642                           ;psect for function ___flge
  5643                           
  5644     098E                     l2955:	
  5645                           ;incstack = 0
  5646                           ; Regs used in ___flge: [wreg+status,2+status,0]
  5647                           
  5648     098E  3000               	movlw	0
  5649     098F  0571               	andwf	___flge@ff1,w
  5650     0990  0020               	movlb	0	; select bank0
  5651     0991  00A0               	movwf	??___flge
  5652     0992  3000               	movlw	0
  5653     0993  0572               	andwf	___flge@ff1+1,w
  5654     0994  00A1               	movwf	??___flge+1
  5655     0995  3080               	movlw	128
  5656     0996  0573               	andwf	___flge@ff1+2,w
  5657     0997  00A2               	movwf	??___flge+2
  5658     0998  307F               	movlw	127
  5659     0999  0574               	andwf	___flge@ff1+3,w
  5660     099A  00A3               	movwf	??___flge+3
  5661     099B  0823               	movf	??___flge+3,w
  5662     099C  0422               	iorwf	??___flge+2,w
  5663     099D  0421               	iorwf	??___flge+1,w
  5664     099E  0420               	iorwf	??___flge,w
  5665     099F  1D03               	skipz
  5666     09A0  29A2               	goto	u3821
  5667     09A1  29A3               	goto	u3820
  5668     09A2                     u3821:
  5669     09A2  29AB               	goto	l523
  5670     09A3                     u3820:
  5671     09A3                     l2957:
  5672     09A3  3000               	movlw	0
  5673     09A4  00F4               	movwf	___flge@ff1+3
  5674     09A5  3000               	movlw	0
  5675     09A6  00F3               	movwf	___flge@ff1+2
  5676     09A7  3000               	movlw	0
  5677     09A8  00F2               	movwf	___flge@ff1+1
  5678     09A9  3000               	movlw	0
  5679     09AA  00F1               	movwf	___flge@ff1
  5680     09AB                     l523:
  5681     09AB  3000               	movlw	0
  5682     09AC  0575               	andwf	___flge@ff2,w
  5683     09AD  00A0               	movwf	??___flge
  5684     09AE  3000               	movlw	0
  5685     09AF  0576               	andwf	___flge@ff2+1,w
  5686     09B0  00A1               	movwf	??___flge+1
  5687     09B1  3080               	movlw	128
  5688     09B2  0577               	andwf	___flge@ff2+2,w
  5689     09B3  00A2               	movwf	??___flge+2
  5690     09B4  307F               	movlw	127
  5691     09B5  0578               	andwf	___flge@ff2+3,w
  5692     09B6  00A3               	movwf	??___flge+3
  5693     09B7  0823               	movf	??___flge+3,w
  5694     09B8  0422               	iorwf	??___flge+2,w
  5695     09B9  0421               	iorwf	??___flge+1,w
  5696     09BA  0420               	iorwf	??___flge,w
  5697     09BB  1D03               	skipz
  5698     09BC  29BE               	goto	u3831
  5699     09BD  29BF               	goto	u3830
  5700     09BE                     u3831:
  5701     09BE  29C7               	goto	l2961
  5702     09BF                     u3830:
  5703     09BF                     l2959:
  5704     09BF  3000               	movlw	0
  5705     09C0  00F8               	movwf	___flge@ff2+3
  5706     09C1  3000               	movlw	0
  5707     09C2  00F7               	movwf	___flge@ff2+2
  5708     09C3  3000               	movlw	0
  5709     09C4  00F6               	movwf	___flge@ff2+1
  5710     09C5  3000               	movlw	0
  5711     09C6  00F5               	movwf	___flge@ff2
  5712     09C7                     l2961:
  5713     09C7  1FF4               	btfss	___flge@ff1+3,7
  5714     09C8  29CA               	goto	u3841
  5715     09C9  29CB               	goto	u3840
  5716     09CA                     u3841:
  5717     09CA  29E3               	goto	l2965
  5718     09CB                     u3840:
  5719     09CB                     l2963:
  5720     09CB  3000               	movlw	0
  5721     09CC  00A0               	movwf	??___flge
  5722     09CD  3000               	movlw	0
  5723     09CE  00A1               	movwf	??___flge+1
  5724     09CF  3000               	movlw	0
  5725     09D0  00A2               	movwf	??___flge+2
  5726     09D1  3080               	movlw	128
  5727     09D2  00A3               	movwf	??___flge+3
  5728     09D3  0871               	movf	___flge@ff1,w
  5729     09D4  02A0               	subwf	??___flge,f
  5730     09D5  0872               	movf	___flge@ff1+1,w
  5731     09D6  3BA1               	subwfb	??___flge+1,f
  5732     09D7  0873               	movf	___flge@ff1+2,w
  5733     09D8  3BA2               	subwfb	??___flge+2,f
  5734     09D9  0874               	movf	___flge@ff1+3,w
  5735     09DA  3BA3               	subwfb	??___flge+3,f
  5736     09DB  0823               	movf	??___flge+3,w
  5737     09DC  00F4               	movwf	___flge@ff1+3
  5738     09DD  0822               	movf	??___flge+2,w
  5739     09DE  00F3               	movwf	___flge@ff1+2
  5740     09DF  0821               	movf	??___flge+1,w
  5741     09E0  00F2               	movwf	___flge@ff1+1
  5742     09E1  0820               	movf	??___flge,w
  5743     09E2  00F1               	movwf	___flge@ff1
  5744     09E3                     l2965:
  5745     09E3  1FF8               	btfss	___flge@ff2+3,7
  5746     09E4  29E6               	goto	u3851
  5747     09E5  29E7               	goto	u3850
  5748     09E6                     u3851:
  5749     09E6  29FF               	goto	l526
  5750     09E7                     u3850:
  5751     09E7                     l2967:
  5752     09E7  3000               	movlw	0
  5753     09E8  00A0               	movwf	??___flge
  5754     09E9  3000               	movlw	0
  5755     09EA  00A1               	movwf	??___flge+1
  5756     09EB  3000               	movlw	0
  5757     09EC  00A2               	movwf	??___flge+2
  5758     09ED  3080               	movlw	128
  5759     09EE  00A3               	movwf	??___flge+3
  5760     09EF  0875               	movf	___flge@ff2,w
  5761     09F0  02A0               	subwf	??___flge,f
  5762     09F1  0876               	movf	___flge@ff2+1,w
  5763     09F2  3BA1               	subwfb	??___flge+1,f
  5764     09F3  0877               	movf	___flge@ff2+2,w
  5765     09F4  3BA2               	subwfb	??___flge+2,f
  5766     09F5  0878               	movf	___flge@ff2+3,w
  5767     09F6  3BA3               	subwfb	??___flge+3,f
  5768     09F7  0823               	movf	??___flge+3,w
  5769     09F8  00F8               	movwf	___flge@ff2+3
  5770     09F9  0822               	movf	??___flge+2,w
  5771     09FA  00F7               	movwf	___flge@ff2+2
  5772     09FB  0821               	movf	??___flge+1,w
  5773     09FC  00F6               	movwf	___flge@ff2+1
  5774     09FD  0820               	movf	??___flge,w
  5775     09FE  00F5               	movwf	___flge@ff2
  5776     09FF                     l526:
  5777     09FF  3080               	movlw	128
  5778     0A00  06F4               	xorwf	___flge@ff1+3,f
  5779     0A01  3080               	movlw	128
  5780     0A02  06F8               	xorwf	___flge@ff2+3,f
  5781     0A03  0878               	movf	___flge@ff2+3,w
  5782     0A04  0274               	subwf	___flge@ff1+3,w
  5783     0A05  1D03               	skipz
  5784     0A06  2A11               	goto	u3865
  5785     0A07  0877               	movf	___flge@ff2+2,w
  5786     0A08  0273               	subwf	___flge@ff1+2,w
  5787     0A09  1D03               	skipz
  5788     0A0A  2A11               	goto	u3865
  5789     0A0B  0876               	movf	___flge@ff2+1,w
  5790     0A0C  0272               	subwf	___flge@ff1+1,w
  5791     0A0D  1D03               	skipz
  5792     0A0E  2A11               	goto	u3865
  5793     0A0F  0875               	movf	___flge@ff2,w
  5794     0A10  0271               	subwf	___flge@ff1,w
  5795     0A11                     u3865:
  5796     0A11  1803               	skipnc
  5797     0A12  2A14               	goto	u3861
  5798     0A13  2A15               	goto	u3860
  5799     0A14                     u3861:
  5800     0A14  2A17               	goto	l2971
  5801     0A15                     u3860:
  5802     0A15                     l2969:
  5803     0A15  1003               	clrc
  5804     0A16  2A18               	goto	l531
  5805     0A17                     l2971:
  5806     0A17  1403               	setc
  5807     0A18                     l531:
  5808     0A18  0008               	return
  5809     0A19                     __end_of___flge:
  5810                           
  5811                           	psect	text12
  5812     0C4E                     __ptext12:	
  5813 ;; *************** function ___fldiv *****************
  5814 ;; Defined at:
  5815 ;;		line 8 in file "C:\Program Files\Microchip\xc8\v2.40\pic\sources\c99\common\sprcdiv.c"
  5816 ;; Parameters:    Size  Location     Type
  5817 ;;  a               4   52[BANK0 ] void 
  5818 ;;  b               4   56[BANK0 ] void 
  5819 ;; Auto vars:     Size  Location     Type
  5820 ;;  grs             4   72[BANK0 ] unsigned long 
  5821 ;;  rem             4   65[BANK0 ] unsigned long 
  5822 ;;  new_exp         2   70[BANK0 ] int 
  5823 ;;  aexp            1   77[BANK0 ] unsigned char 
  5824 ;;  bexp            1   76[BANK0 ] unsigned char 
  5825 ;;  sign            1   69[BANK0 ] unsigned char 
  5826 ;; Return value:  Size  Location     Type
  5827 ;;                  4   52[BANK0 ] unsigned char 
  5828 ;; Registers used:
  5829 ;;		wreg, status,2, status,0
  5830 ;; Tracked objects:
  5831 ;;		On entry : 0/0
  5832 ;;		On exit  : 0/0
  5833 ;;		Unchanged: 0/0
  5834 ;; Data sizes:     COMMON   BANK0   BANK1   BANK2   BANK3   BANK4   BANK5   BANK6   BANK7   BANK8   BANK9  BANK10  BANK1
      +1  BANK12
  5835 ;;      Params:         0       8       0       0       0       0       0       0       0       0       0       0       
      +0       0
  5836 ;;      Locals:         0      13       0       0       0       0       0       0       0       0       0       0       
      +0       0
  5837 ;;      Temps:          0       5       0       0       0       0       0       0       0       0       0       0       
      +0       0
  5838 ;;      Totals:         0      26       0       0       0       0       0       0       0       0       0       0       
      +0       0
  5839 ;;Total ram usage:       26 bytes
  5840 ;; Hardware stack levels used: 1
  5841 ;; Hardware stack levels required when called: 1
  5842 ;; This function calls:
  5843 ;;		Nothing
  5844 ;; This function is called by:
  5845 ;;		_main
  5846 ;;		_FREQ_Afficher
  5847 ;; This function uses a non-reentrant model
  5848 ;;
  5849                           
  5850     0C4E                     ___fldiv:	
  5851                           ;psect for function ___fldiv
  5852                           
  5853     0C4E                     l2083:	
  5854                           ;incstack = 0
  5855                           ; Regs used in ___fldiv: [wreg+status,2+status,0]
  5856                           
  5857     0C4E  0020               	movlb	0	; select bank0
  5858     0C4F  085B               	movf	___fldiv@b+3,w
  5859     0C50  3980               	andlw	128
  5860     0C51  00E5               	movwf	___fldiv@sign
  5861     0C52                     l2085:
  5862     0C52  355B               	lslf	___fldiv@b+3,w
  5863     0C53  00EC               	movwf	___fldiv@bexp
  5864     0C54                     l2087:
  5865     0C54  1FDA               	btfss	___fldiv@b+2,7
  5866     0C55  2C57               	goto	u2371
  5867     0C56  2C58               	goto	u2370
  5868     0C57                     u2371:
  5869     0C57  2C59               	goto	l2091
  5870     0C58                     u2370:
  5871     0C58                     l2089:
  5872     0C58  146C               	bsf	___fldiv@bexp,0
  5873     0C59                     l2091:
  5874     0C59  086C               	movf	___fldiv@bexp,w
  5875     0C5A  1903               	btfsc	3,2
  5876     0C5B  2C5D               	goto	u2381
  5877     0C5C  2C5E               	goto	u2380
  5878     0C5D                     u2381:
  5879     0C5D  2C6E               	goto	l2101
  5880     0C5E                     u2380:
  5881     0C5E                     l2093:
  5882     0C5E  0A6C               	incf	___fldiv@bexp,w
  5883     0C5F  1D03               	btfss	3,2
  5884     0C60  2C62               	goto	u2391
  5885     0C61  2C63               	goto	u2390
  5886     0C62                     u2391:
  5887     0C62  2C6B               	goto	l2097
  5888     0C63                     u2390:
  5889     0C63                     l2095:
  5890     0C63  3000               	movlw	0
  5891     0C64  00DB               	movwf	___fldiv@b+3
  5892     0C65  3000               	movlw	0
  5893     0C66  00DA               	movwf	___fldiv@b+2
  5894     0C67  3000               	movlw	0
  5895     0C68  00D9               	movwf	___fldiv@b+1
  5896     0C69  3000               	movlw	0
  5897     0C6A  00D8               	movwf	___fldiv@b
  5898     0C6B                     l2097:
  5899     0C6B  17DA               	bsf	___fldiv@b+2,7
  5900     0C6C                     l2099:
  5901     0C6C  01DB               	clrf	___fldiv@b+3
  5902     0C6D  2C76               	goto	l2103
  5903     0C6E                     l2101:
  5904     0C6E  3000               	movlw	0
  5905     0C6F  00DB               	movwf	___fldiv@b+3
  5906     0C70  3000               	movlw	0
  5907     0C71  00DA               	movwf	___fldiv@b+2
  5908     0C72  3000               	movlw	0
  5909     0C73  00D9               	movwf	___fldiv@b+1
  5910     0C74  3000               	movlw	0
  5911     0C75  00D8               	movwf	___fldiv@b
  5912     0C76                     l2103:
  5913     0C76  0857               	movf	___fldiv@a+3,w
  5914     0C77  3980               	andlw	128
  5915     0C78  00DC               	movwf	??___fldiv
  5916     0C79  085C               	movf	??___fldiv,w
  5917     0C7A  06E5               	xorwf	___fldiv@sign,f
  5918     0C7B                     l2105:
  5919     0C7B  3557               	lslf	___fldiv@a+3,w
  5920     0C7C  00ED               	movwf	___fldiv@aexp
  5921     0C7D                     l2107:
  5922     0C7D  1FD6               	btfss	___fldiv@a+2,7
  5923     0C7E  2C80               	goto	u2401
  5924     0C7F  2C81               	goto	u2400
  5925     0C80                     u2401:
  5926     0C80  2C82               	goto	l2111
  5927     0C81                     u2400:
  5928     0C81                     l2109:
  5929     0C81  146D               	bsf	___fldiv@aexp,0
  5930     0C82                     l2111:
  5931     0C82  086D               	movf	___fldiv@aexp,w
  5932     0C83  1903               	btfsc	3,2
  5933     0C84  2C86               	goto	u2411
  5934     0C85  2C87               	goto	u2410
  5935     0C86                     u2411:
  5936     0C86  2C97               	goto	l2121
  5937     0C87                     u2410:
  5938     0C87                     l2113:
  5939     0C87  0A6D               	incf	___fldiv@aexp,w
  5940     0C88  1D03               	btfss	3,2
  5941     0C89  2C8B               	goto	u2421
  5942     0C8A  2C8C               	goto	u2420
  5943     0C8B                     u2421:
  5944     0C8B  2C94               	goto	l2117
  5945     0C8C                     u2420:
  5946     0C8C                     l2115:
  5947     0C8C  3000               	movlw	0
  5948     0C8D  00D7               	movwf	___fldiv@a+3
  5949     0C8E  3000               	movlw	0
  5950     0C8F  00D6               	movwf	___fldiv@a+2
  5951     0C90  3000               	movlw	0
  5952     0C91  00D5               	movwf	___fldiv@a+1
  5953     0C92  3000               	movlw	0
  5954     0C93  00D4               	movwf	___fldiv@a
  5955     0C94                     l2117:
  5956     0C94  17D6               	bsf	___fldiv@a+2,7
  5957     0C95                     l2119:
  5958     0C95  01D7               	clrf	___fldiv@a+3
  5959     0C96  2C9F               	goto	l702
  5960     0C97                     l2121:
  5961     0C97  3000               	movlw	0
  5962     0C98  00D7               	movwf	___fldiv@a+3
  5963     0C99  3000               	movlw	0
  5964     0C9A  00D6               	movwf	___fldiv@a+2
  5965     0C9B  3000               	movlw	0
  5966     0C9C  00D5               	movwf	___fldiv@a+1
  5967     0C9D  3000               	movlw	0
  5968     0C9E  00D4               	movwf	___fldiv@a
  5969     0C9F                     l702:
  5970     0C9F  0857               	movf	___fldiv@a+3,w
  5971     0CA0  0456               	iorwf	___fldiv@a+2,w
  5972     0CA1  0455               	iorwf	___fldiv@a+1,w
  5973     0CA2  0454               	iorwf	___fldiv@a,w
  5974     0CA3  1D03               	skipz
  5975     0CA4  2CA6               	goto	u2431
  5976     0CA5  2CA7               	goto	u2430
  5977     0CA6                     u2431:
  5978     0CA6  2CC0               	goto	l2131
  5979     0CA7                     u2430:
  5980     0CA7                     l2123:
  5981     0CA7  3000               	movlw	0
  5982     0CA8  00DB               	movwf	___fldiv@b+3
  5983     0CA9  3000               	movlw	0
  5984     0CAA  00DA               	movwf	___fldiv@b+2
  5985     0CAB  3000               	movlw	0
  5986     0CAC  00D9               	movwf	___fldiv@b+1
  5987     0CAD  3000               	movlw	0
  5988     0CAE  00D8               	movwf	___fldiv@b
  5989     0CAF  3080               	movlw	128
  5990     0CB0  04DA               	iorwf	___fldiv@b+2,f
  5991     0CB1  307F               	movlw	127
  5992     0CB2  04DB               	iorwf	___fldiv@b+3,f
  5993     0CB3                     l2125:
  5994     0CB3  0865               	movf	___fldiv@sign,w
  5995     0CB4  00DC               	movwf	??___fldiv
  5996     0CB5  085C               	movf	??___fldiv,w
  5997     0CB6  04DB               	iorwf	___fldiv@b+3,f
  5998     0CB7                     l2127:
  5999     0CB7  085B               	movf	___fldiv@b+3,w
  6000     0CB8  00D7               	movwf	?___fldiv+3
  6001     0CB9  085A               	movf	___fldiv@b+2,w
  6002     0CBA  00D6               	movwf	?___fldiv+2
  6003     0CBB  0859               	movf	___fldiv@b+1,w
  6004     0CBC  00D5               	movwf	?___fldiv+1
  6005     0CBD  0858               	movf	___fldiv@b,w
  6006     0CBE  00D4               	movwf	?___fldiv
  6007     0CBF  2DF7               	goto	l704
  6008     0CC0                     l2131:
  6009     0CC0  086C               	movf	___fldiv@bexp,w
  6010     0CC1  1D03               	btfss	3,2
  6011     0CC2  2CC4               	goto	u2441
  6012     0CC3  2CC5               	goto	u2440
  6013     0CC4                     u2441:
  6014     0CC4  2CCE               	goto	l2137
  6015     0CC5                     u2440:
  6016     0CC5                     l2133:
  6017     0CC5  3000               	movlw	0
  6018     0CC6  00D7               	movwf	?___fldiv+3
  6019     0CC7  3000               	movlw	0
  6020     0CC8  00D6               	movwf	?___fldiv+2
  6021     0CC9  3000               	movlw	0
  6022     0CCA  00D5               	movwf	?___fldiv+1
  6023     0CCB  3000               	movlw	0
  6024     0CCC  00D4               	movwf	?___fldiv
  6025     0CCD  2DF7               	goto	l704
  6026     0CCE                     l2137:
  6027     0CCE  086C               	movf	___fldiv@bexp,w
  6028     0CCF  00DC               	movwf	??___fldiv
  6029     0CD0  01DD               	clrf	??___fldiv+1
  6030     0CD1  085D               	movf	??___fldiv+1,w
  6031     0CD2  00DF               	movwf	??___fldiv+3
  6032     0CD3  086D               	movf	___fldiv@aexp,w
  6033     0CD4  025C               	subwf	??___fldiv,w
  6034     0CD5  00DE               	movwf	??___fldiv+2
  6035     0CD6  1C03               	skipc
  6036     0CD7  03DF               	decf	??___fldiv+3,f
  6037     0CD8  085E               	movf	??___fldiv+2,w
  6038     0CD9  3E7F               	addlw	127
  6039     0CDA  00E6               	movwf	___fldiv@new_exp
  6040     0CDB  3000               	movlw	0
  6041     0CDC  3D5F               	addwfc	??___fldiv+3,w
  6042     0CDD  00E7               	movwf	___fldiv@new_exp+1
  6043     0CDE                     l2139:
  6044     0CDE  085B               	movf	___fldiv@b+3,w
  6045     0CDF  00E4               	movwf	___fldiv@rem+3
  6046     0CE0  085A               	movf	___fldiv@b+2,w
  6047     0CE1  00E3               	movwf	___fldiv@rem+2
  6048     0CE2  0859               	movf	___fldiv@b+1,w
  6049     0CE3  00E2               	movwf	___fldiv@rem+1
  6050     0CE4  0858               	movf	___fldiv@b,w
  6051     0CE5  00E1               	movwf	___fldiv@rem
  6052     0CE6                     l2141:
  6053     0CE6  3000               	movlw	0
  6054     0CE7  00DB               	movwf	___fldiv@b+3
  6055     0CE8  3000               	movlw	0
  6056     0CE9  00DA               	movwf	___fldiv@b+2
  6057     0CEA  3000               	movlw	0
  6058     0CEB  00D9               	movwf	___fldiv@b+1
  6059     0CEC  3000               	movlw	0
  6060     0CED  00D8               	movwf	___fldiv@b
  6061     0CEE                     l2143:
  6062     0CEE  3000               	movlw	0
  6063     0CEF  00EB               	movwf	___fldiv@grs+3
  6064     0CF0  3000               	movlw	0
  6065     0CF1  00EA               	movwf	___fldiv@grs+2
  6066     0CF2  3000               	movlw	0
  6067     0CF3  00E9               	movwf	___fldiv@grs+1
  6068     0CF4  3000               	movlw	0
  6069     0CF5  00E8               	movwf	___fldiv@grs
  6070     0CF6                     l2145:
  6071     0CF6  01ED               	clrf	___fldiv@aexp
  6072     0CF7  2D36               	goto	l2165
  6073     0CF8                     l2147:
  6074     0CF8  086D               	movf	___fldiv@aexp,w
  6075     0CF9  1903               	btfsc	3,2
  6076     0CFA  2CFC               	goto	u2451
  6077     0CFB  2CFD               	goto	u2450
  6078     0CFC                     u2451:
  6079     0CFC  2D17               	goto	l2157
  6080     0CFD                     u2450:
  6081     0CFD                     l2149:
  6082     0CFD  3001               	movlw	1
  6083     0CFE                     u2465:
  6084     0CFE  35E1               	lslf	___fldiv@rem,f
  6085     0CFF  0DE2               	rlf	___fldiv@rem+1,f
  6086     0D00  0DE3               	rlf	___fldiv@rem+2,f
  6087     0D01  0DE4               	rlf	___fldiv@rem+3,f
  6088     0D02  0B89               	decfsz	9,f
  6089     0D03  2CFE               	goto	u2465
  6090     0D04  3001               	movlw	1
  6091     0D05                     u2475:
  6092     0D05  35D8               	lslf	___fldiv@b,f
  6093     0D06  0DD9               	rlf	___fldiv@b+1,f
  6094     0D07  0DDA               	rlf	___fldiv@b+2,f
  6095     0D08  0DDB               	rlf	___fldiv@b+3,f
  6096     0D09  0B89               	decfsz	9,f
  6097     0D0A  2D05               	goto	u2475
  6098     0D0B                     l2151:
  6099     0D0B  1FEB               	btfss	___fldiv@grs+3,7
  6100     0D0C  2D0E               	goto	u2481
  6101     0D0D  2D0F               	goto	u2480
  6102     0D0E                     u2481:
  6103     0D0E  2D10               	goto	l2155
  6104     0D0F                     u2480:
  6105     0D0F                     l2153:
  6106     0D0F  1458               	bsf	___fldiv@b,0
  6107     0D10                     l2155:
  6108     0D10  3001               	movlw	1
  6109     0D11                     u2495:
  6110     0D11  35E8               	lslf	___fldiv@grs,f
  6111     0D12  0DE9               	rlf	___fldiv@grs+1,f
  6112     0D13  0DEA               	rlf	___fldiv@grs+2,f
  6113     0D14  0DEB               	rlf	___fldiv@grs+3,f
  6114     0D15  0B89               	decfsz	9,f
  6115     0D16  2D11               	goto	u2495
  6116     0D17                     l2157:
  6117     0D17  0857               	movf	___fldiv@a+3,w
  6118     0D18  0264               	subwf	___fldiv@rem+3,w
  6119     0D19  1D03               	skipz
  6120     0D1A  2D25               	goto	u2505
  6121     0D1B  0856               	movf	___fldiv@a+2,w
  6122     0D1C  0263               	subwf	___fldiv@rem+2,w
  6123     0D1D  1D03               	skipz
  6124     0D1E  2D25               	goto	u2505
  6125     0D1F  0855               	movf	___fldiv@a+1,w
  6126     0D20  0262               	subwf	___fldiv@rem+1,w
  6127     0D21  1D03               	skipz
  6128     0D22  2D25               	goto	u2505
  6129     0D23  0854               	movf	___fldiv@a,w
  6130     0D24  0261               	subwf	___fldiv@rem,w
  6131     0D25                     u2505:
  6132     0D25  1C03               	skipc
  6133     0D26  2D28               	goto	u2501
  6134     0D27  2D29               	goto	u2500
  6135     0D28                     u2501:
  6136     0D28  2D32               	goto	l2163
  6137     0D29                     u2500:
  6138     0D29                     l2159:
  6139     0D29  176B               	bsf	___fldiv@grs+3,6
  6140     0D2A                     l2161:
  6141     0D2A  0854               	movf	___fldiv@a,w
  6142     0D2B  02E1               	subwf	___fldiv@rem,f
  6143     0D2C  0855               	movf	___fldiv@a+1,w
  6144     0D2D  3BE2               	subwfb	___fldiv@rem+1,f
  6145     0D2E  0856               	movf	___fldiv@a+2,w
  6146     0D2F  3BE3               	subwfb	___fldiv@rem+2,f
  6147     0D30  0857               	movf	___fldiv@a+3,w
  6148     0D31  3BE4               	subwfb	___fldiv@rem+3,f
  6149     0D32                     l2163:
  6150     0D32  3001               	movlw	1
  6151     0D33  00DC               	movwf	??___fldiv
  6152     0D34  085C               	movf	??___fldiv,w
  6153     0D35  07ED               	addwf	___fldiv@aexp,f
  6154     0D36                     l2165:
  6155     0D36  301A               	movlw	26
  6156     0D37  026D               	subwf	___fldiv@aexp,w
  6157     0D38  1C03               	skipc
  6158     0D39  2D3B               	goto	u2511
  6159     0D3A  2D3C               	goto	u2510
  6160     0D3B                     u2511:
  6161     0D3B  2CF8               	goto	l2147
  6162     0D3C                     u2510:
  6163     0D3C                     l2167:
  6164     0D3C  0864               	movf	___fldiv@rem+3,w
  6165     0D3D  0463               	iorwf	___fldiv@rem+2,w
  6166     0D3E  0462               	iorwf	___fldiv@rem+1,w
  6167     0D3F  0461               	iorwf	___fldiv@rem,w
  6168     0D40  1903               	skipnz
  6169     0D41  2D43               	goto	u2521
  6170     0D42  2D44               	goto	u2520
  6171     0D43                     u2521:
  6172     0D43  2D5D               	goto	l2181
  6173     0D44                     u2520:
  6174     0D44                     l2169:
  6175     0D44  1468               	bsf	___fldiv@grs,0
  6176     0D45  2D5D               	goto	l2181
  6177     0D46                     l2171:
  6178     0D46  3001               	movlw	1
  6179     0D47                     u2535:
  6180     0D47  35D8               	lslf	___fldiv@b,f
  6181     0D48  0DD9               	rlf	___fldiv@b+1,f
  6182     0D49  0DDA               	rlf	___fldiv@b+2,f
  6183     0D4A  0DDB               	rlf	___fldiv@b+3,f
  6184     0D4B  0B89               	decfsz	9,f
  6185     0D4C  2D47               	goto	u2535
  6186     0D4D                     l2173:
  6187     0D4D  1FEB               	btfss	___fldiv@grs+3,7
  6188     0D4E  2D50               	goto	u2541
  6189     0D4F  2D51               	goto	u2540
  6190     0D50                     u2541:
  6191     0D50  2D52               	goto	l2177
  6192     0D51                     u2540:
  6193     0D51                     l2175:
  6194     0D51  1458               	bsf	___fldiv@b,0
  6195     0D52                     l2177:
  6196     0D52  3001               	movlw	1
  6197     0D53                     u2555:
  6198     0D53  35E8               	lslf	___fldiv@grs,f
  6199     0D54  0DE9               	rlf	___fldiv@grs+1,f
  6200     0D55  0DEA               	rlf	___fldiv@grs+2,f
  6201     0D56  0DEB               	rlf	___fldiv@grs+3,f
  6202     0D57  0B89               	decfsz	9,f
  6203     0D58  2D53               	goto	u2555
  6204     0D59                     l2179:
  6205     0D59  30FF               	movlw	255
  6206     0D5A  07E6               	addwf	___fldiv@new_exp,f
  6207     0D5B  30FF               	movlw	255
  6208     0D5C  3DE7               	addwfc	___fldiv@new_exp+1,f
  6209     0D5D                     l2181:
  6210     0D5D  1FDA               	btfss	___fldiv@b+2,7
  6211     0D5E  2D60               	goto	u2561
  6212     0D5F  2D61               	goto	u2560
  6213     0D60                     u2561:
  6214     0D60  2D46               	goto	l2171
  6215     0D61                     u2560:
  6216     0D61                     l2183:
  6217     0D61  01ED               	clrf	___fldiv@aexp
  6218     0D62                     l2185:
  6219     0D62  1FEB               	btfss	___fldiv@grs+3,7
  6220     0D63  2D65               	goto	u2571
  6221     0D64  2D66               	goto	u2570
  6222     0D65                     u2571:
  6223     0D65  2D82               	goto	l2193
  6224     0D66                     u2570:
  6225     0D66                     l2187:
  6226     0D66  30FF               	movlw	255
  6227     0D67  0568               	andwf	___fldiv@grs,w
  6228     0D68  00DC               	movwf	??___fldiv
  6229     0D69  30FF               	movlw	255
  6230     0D6A  0569               	andwf	___fldiv@grs+1,w
  6231     0D6B  00DD               	movwf	??___fldiv+1
  6232     0D6C  30FF               	movlw	255
  6233     0D6D  056A               	andwf	___fldiv@grs+2,w
  6234     0D6E  00DE               	movwf	??___fldiv+2
  6235     0D6F  307F               	movlw	127
  6236     0D70  056B               	andwf	___fldiv@grs+3,w
  6237     0D71  00DF               	movwf	??___fldiv+3
  6238     0D72  085F               	movf	??___fldiv+3,w
  6239     0D73  045E               	iorwf	??___fldiv+2,w
  6240     0D74  045D               	iorwf	??___fldiv+1,w
  6241     0D75  045C               	iorwf	??___fldiv,w
  6242     0D76  1903               	skipnz
  6243     0D77  2D79               	goto	u2581
  6244     0D78  2D7A               	goto	u2580
  6245     0D79                     u2581:
  6246     0D79  2D7D               	goto	l718
  6247     0D7A                     u2580:
  6248     0D7A                     l2189:
  6249     0D7A  01ED               	clrf	___fldiv@aexp
  6250     0D7B  0AED               	incf	___fldiv@aexp,f
  6251     0D7C  2D82               	goto	l2193
  6252     0D7D                     l718:
  6253     0D7D  1C58               	btfss	___fldiv@b,0
  6254     0D7E  2D80               	goto	u2591
  6255     0D7F  2D81               	goto	u2590
  6256     0D80                     u2591:
  6257     0D80  2D82               	goto	l2193
  6258     0D81                     u2590:
  6259     0D81  2D7A               	goto	l2189
  6260     0D82                     l2193:
  6261     0D82  086D               	movf	___fldiv@aexp,w
  6262     0D83  1903               	btfsc	3,2
  6263     0D84  2D86               	goto	u2601
  6264     0D85  2D87               	goto	u2600
  6265     0D86                     u2601:
  6266     0D86  2DAF               	goto	l2203
  6267     0D87                     u2600:
  6268     0D87                     l2195:
  6269     0D87  3001               	movlw	1
  6270     0D88  07D8               	addwf	___fldiv@b,f
  6271     0D89  3000               	movlw	0
  6272     0D8A  3DD9               	addwfc	___fldiv@b+1,f
  6273     0D8B  3000               	movlw	0
  6274     0D8C  3DDA               	addwfc	___fldiv@b+2,f
  6275     0D8D  3000               	movlw	0
  6276     0D8E  3DDB               	addwfc	___fldiv@b+3,f
  6277     0D8F                     l2197:
  6278     0D8F  1C5B               	btfss	___fldiv@b+3,0
  6279     0D90  2D92               	goto	u2611
  6280     0D91  2D93               	goto	u2610
  6281     0D92                     u2611:
  6282     0D92  2DAF               	goto	l2203
  6283     0D93                     u2610:
  6284     0D93                     l2199:
  6285     0D93  0858               	movf	___fldiv@b,w
  6286     0D94  00DC               	movwf	??___fldiv
  6287     0D95  0859               	movf	___fldiv@b+1,w
  6288     0D96  00DD               	movwf	??___fldiv+1
  6289     0D97  085A               	movf	___fldiv@b+2,w
  6290     0D98  00DE               	movwf	??___fldiv+2
  6291     0D99  085B               	movf	___fldiv@b+3,w
  6292     0D9A  00DF               	movwf	??___fldiv+3
  6293     0D9B  3001               	movlw	1
  6294     0D9C  00E0               	movwf	??___fldiv+4
  6295     0D9D                     u2625:
  6296     0D9D  37DF               	asrf	??___fldiv+3,f
  6297     0D9E  0CDE               	rrf	??___fldiv+2,f
  6298     0D9F  0CDD               	rrf	??___fldiv+1,f
  6299     0DA0  0CDC               	rrf	??___fldiv,f
  6300     0DA1                     u2620:
  6301     0DA1  0BE0               	decfsz	??___fldiv+4,f
  6302     0DA2  2D9D               	goto	u2625
  6303     0DA3  085F               	movf	??___fldiv+3,w
  6304     0DA4  00DB               	movwf	___fldiv@b+3
  6305     0DA5  085E               	movf	??___fldiv+2,w
  6306     0DA6  00DA               	movwf	___fldiv@b+2
  6307     0DA7  085D               	movf	??___fldiv+1,w
  6308     0DA8  00D9               	movwf	___fldiv@b+1
  6309     0DA9  085C               	movf	??___fldiv,w
  6310     0DAA  00D8               	movwf	___fldiv@b
  6311     0DAB                     l2201:
  6312     0DAB  3001               	movlw	1
  6313     0DAC  07E6               	addwf	___fldiv@new_exp,f
  6314     0DAD  3000               	movlw	0
  6315     0DAE  3DE7               	addwfc	___fldiv@new_exp+1,f
  6316     0DAF                     l2203:
  6317     0DAF  0867               	movf	___fldiv@new_exp+1,w
  6318     0DB0  3A80               	xorlw	128
  6319     0DB1  00DC               	movwf	??___fldiv
  6320     0DB2  3080               	movlw	128
  6321     0DB3  025C               	subwf	??___fldiv,w
  6322     0DB4  1D03               	skipz
  6323     0DB5  2DB8               	goto	u2635
  6324     0DB6  30FF               	movlw	255
  6325     0DB7  0266               	subwf	___fldiv@new_exp,w
  6326     0DB8                     u2635:
  6327     0DB8  1C03               	skipc
  6328     0DB9  2DBB               	goto	u2631
  6329     0DBA  2DBC               	goto	u2630
  6330     0DBB                     u2631:
  6331     0DBB  2DC9               	goto	l723
  6332     0DBC                     u2630:
  6333     0DBC                     l2205:
  6334     0DBC  30FF               	movlw	255
  6335     0DBD  0020               	movlb	0	; select bank0
  6336     0DBE  00E6               	movwf	___fldiv@new_exp
  6337     0DBF  3000               	movlw	0
  6338     0DC0  00E7               	movwf	___fldiv@new_exp+1
  6339     0DC1  3000               	movlw	0
  6340     0DC2  00DB               	movwf	___fldiv@b+3
  6341     0DC3  3000               	movlw	0
  6342     0DC4  00DA               	movwf	___fldiv@b+2
  6343     0DC5  3000               	movlw	0
  6344     0DC6  00D9               	movwf	___fldiv@b+1
  6345     0DC7  3000               	movlw	0
  6346     0DC8  00D8               	movwf	___fldiv@b
  6347     0DC9                     l723:
  6348     0DC9  0020               	movlb	0	; select bank0
  6349     0DCA  0867               	movf	___fldiv@new_exp+1,w
  6350     0DCB  3A80               	xorlw	128
  6351     0DCC  00DC               	movwf	??___fldiv
  6352     0DCD  3080               	movlw	128
  6353     0DCE  025C               	subwf	??___fldiv,w
  6354     0DCF  1D03               	skipz
  6355     0DD0  2DD3               	goto	u2645
  6356     0DD1  3001               	movlw	1
  6357     0DD2  0266               	subwf	___fldiv@new_exp,w
  6358     0DD3                     u2645:
  6359     0DD3  1803               	skipnc
  6360     0DD4  2DD6               	goto	u2641
  6361     0DD5  2DD7               	goto	u2640
  6362     0DD6                     u2641:
  6363     0DD6  2DE3               	goto	l724
  6364     0DD7                     u2640:
  6365     0DD7                     l2207:
  6366     0DD7  0020               	movlb	0	; select bank0
  6367     0DD8  01E6               	clrf	___fldiv@new_exp
  6368     0DD9  01E7               	clrf	___fldiv@new_exp+1
  6369     0DDA                     l2209:
  6370     0DDA  3000               	movlw	0
  6371     0DDB  00DB               	movwf	___fldiv@b+3
  6372     0DDC  3000               	movlw	0
  6373     0DDD  00DA               	movwf	___fldiv@b+2
  6374     0DDE  3000               	movlw	0
  6375     0DDF  00D9               	movwf	___fldiv@b+1
  6376     0DE0  3000               	movlw	0
  6377     0DE1  00D8               	movwf	___fldiv@b
  6378     0DE2                     l2211:
  6379     0DE2  01E5               	clrf	___fldiv@sign
  6380     0DE3                     l724:
  6381     0DE3  0020               	movlb	0	; select bank0
  6382     0DE4  0866               	movf	___fldiv@new_exp,w
  6383     0DE5  00EC               	movwf	___fldiv@bexp
  6384     0DE6                     l2213:
  6385     0DE6  1C6C               	btfss	___fldiv@bexp,0
  6386     0DE7  2DE9               	goto	u2651
  6387     0DE8  2DEA               	goto	u2650
  6388     0DE9                     u2651:
  6389     0DE9  2DEC               	goto	l2217
  6390     0DEA                     u2650:
  6391     0DEA                     l2215:
  6392     0DEA  17DA               	bsf	___fldiv@b+2,7
  6393     0DEB  2DF0               	goto	l726
  6394     0DEC                     l2217:
  6395     0DEC  307F               	movlw	127
  6396     0DED  00DC               	movwf	??___fldiv
  6397     0DEE  085C               	movf	??___fldiv,w
  6398     0DEF  05DA               	andwf	___fldiv@b+2,f
  6399     0DF0                     l726:
  6400     0DF0  366C               	lsrf	___fldiv@bexp,w
  6401     0DF1  00DB               	movwf	___fldiv@b+3
  6402     0DF2  0865               	movf	___fldiv@sign,w
  6403     0DF3  00DC               	movwf	??___fldiv
  6404     0DF4  085C               	movf	??___fldiv,w
  6405     0DF5  04DB               	iorwf	___fldiv@b+3,f
  6406     0DF6  2CB7               	goto	l2127
  6407     0DF7                     l704:
  6408     0DF7  0008               	return
  6409     0DF8                     __end_of___fldiv:
  6410                           
  6411                           	psect	text13
  6412     080C                     __ptext13:	
  6413 ;; *************** function _LCD_Print *****************
  6414 ;; Defined at:
  6415 ;;		line 99 in file "LCD_IIC.c"
  6416 ;; Parameters:    Size  Location     Type
  6417 ;;  add             1    wreg     unsigned char 
  6418 ;;  Str             2    7[COMMON] PTR unsigned char 
  6419 ;;		 -> STR_6(8), STR_5(4), STR_4(4), STR_3(19), 
  6420 ;;		 -> STR_2(18), STR_1(18), 
  6421 ;; Auto vars:     Size  Location     Type
  6422 ;;  add             1    0[BANK0 ] unsigned char 
  6423 ;;  i               1    1[BANK0 ] unsigned char 
  6424 ;; Return value:  Size  Location     Type
  6425 ;;                  1    wreg      void 
  6426 ;; Registers used:
  6427 ;;		wreg, fsr0l, fsr0h, status,2, status,0, pclath, cstack
  6428 ;; Tracked objects:
  6429 ;;		On entry : 0/0
  6430 ;;		On exit  : 0/0
  6431 ;;		Unchanged: 0/0
  6432 ;; Data sizes:     COMMON   BANK0   BANK1   BANK2   BANK3   BANK4   BANK5   BANK6   BANK7   BANK8   BANK9  BANK10  BANK1
      +1  BANK12
  6433 ;;      Params:         2       0       0       0       0       0       0       0       0       0       0       0       
      +0       0
  6434 ;;      Locals:         0       2       0       0       0       0       0       0       0       0       0       0       
      +0       0
  6435 ;;      Temps:          3       0       0       0       0       0       0       0       0       0       0       0       
      +0       0
  6436 ;;      Totals:         5       2       0       0       0       0       0       0       0       0       0       0       
      +0       0
  6437 ;;Total ram usage:        7 bytes
  6438 ;; Hardware stack levels used: 1
  6439 ;; Hardware stack levels required when called: 3
  6440 ;; This function calls:
  6441 ;;		_LCD_Envoi
  6442 ;; This function is called by:
  6443 ;;		_main
  6444 ;;		_FREQ_Afficher
  6445 ;; This function uses a non-reentrant model
  6446 ;;
  6447                           
  6448     080C                     _LCD_Print:	
  6449                           ;psect for function _LCD_Print
  6450                           
  6451                           
  6452                           ;incstack = 0
  6453                           ; Regs used in _LCD_Print: [wreg-fsr0h+status,2+status,0+pclath+cstack]
  6454                           ;LCD_Print@add stored from wreg
  6455     080C  0020               	movlb	0	; select bank0
  6456     080D  00A0               	movwf	LCD_Print@add
  6457     080E                     l2915:
  6458                           
  6459                           ;LCD_IIC.c: 100:   uint8_t i = 0;
  6460     080E  01A1               	clrf	LCD_Print@i
  6461     080F                     l2917:
  6462                           
  6463                           ;LCD_IIC.c: 101:   RS = 1;
  6464     080F  147C               	bsf	_RS/(0+8),_RS& (0+7)
  6465                           
  6466                           ;LCD_IIC.c: 102:   while(Str[i] != '\0')
  6467     0810  2842               	goto	l2923
  6468     0811                     l2919:
  6469                           
  6470                           ;LCD_IIC.c: 103:   {;LCD_IIC.c: 104:     LCD_Envoi(add, Str[i] & 0xF0);
  6471     0811  0878               	movf	LCD_Print@Str+1,w
  6472     0812  00FA               	movwf	??_LCD_Print+1
  6473     0813  0877               	movf	LCD_Print@Str,w
  6474     0814  00F9               	movwf	??_LCD_Print
  6475     0815  0821               	movf	LCD_Print@i,w
  6476     0816  0779               	addwf	??_LCD_Print,w
  6477     0817  0084               	movwf	4
  6478     0818  087A               	movf	??_LCD_Print+1,w
  6479     0819  1803               	skipnc
  6480     081A  0A7A               	incf	??_LCD_Print+1,w
  6481     081B  0085               	movwf	5
  6482     081C  0800               	movf	0,w	;code access
  6483     081D  39F0               	andlw	240
  6484     081E  00F4               	movwf	LCD_Envoi@data
  6485     081F  0820               	movf	LCD_Print@add,w
  6486     0820  3197  2728  3188   	fcall	_LCD_Envoi
  6487                           
  6488                           ;LCD_IIC.c: 105:     LCD_Envoi(add, (Str[i++] << 4) & 0xF0 );
  6489     0823  0878               	movf	LCD_Print@Str+1,w
  6490     0824  00FA               	movwf	??_LCD_Print+1
  6491     0825  0877               	movf	LCD_Print@Str,w
  6492     0826  00F9               	movwf	??_LCD_Print
  6493     0827  0020               	movlb	0	; select bank0
  6494     0828  0821               	movf	LCD_Print@i,w
  6495     0829  0779               	addwf	??_LCD_Print,w
  6496     082A  0084               	movwf	4
  6497     082B  087A               	movf	??_LCD_Print+1,w
  6498     082C  1803               	skipnc
  6499     082D  0A7A               	incf	??_LCD_Print+1,w
  6500     082E  0085               	movwf	5
  6501     082F  0800               	movf	0,w	;code access
  6502     0830  00FB               	movwf	??_LCD_Print+2
  6503     0831  3003               	movlw	3
  6504     0832                     u3765:
  6505     0832  35FB               	lslf	??_LCD_Print+2,f
  6506     0833  3EFF               	addlw	-1
  6507     0834  1D03               	skipz
  6508     0835  2832               	goto	u3765
  6509     0836  357B               	lslf	??_LCD_Print+2,w
  6510     0837  39F0               	andlw	240
  6511     0838  00F4               	movwf	LCD_Envoi@data
  6512     0839  0820               	movf	LCD_Print@add,w
  6513     083A  3197  2728  3188   	fcall	_LCD_Envoi
  6514     083D                     l2921:
  6515     083D  3001               	movlw	1
  6516     083E  00F9               	movwf	??_LCD_Print
  6517     083F  0879               	movf	??_LCD_Print,w
  6518     0840  0020               	movlb	0	; select bank0
  6519     0841  07A1               	addwf	LCD_Print@i,f
  6520     0842                     l2923:
  6521                           
  6522                           ;LCD_IIC.c: 102:   while(Str[i] != '\0')
  6523     0842  0878               	movf	LCD_Print@Str+1,w
  6524     0843  00FA               	movwf	??_LCD_Print+1
  6525     0844  0877               	movf	LCD_Print@Str,w
  6526     0845  00F9               	movwf	??_LCD_Print
  6527     0846  0821               	movf	LCD_Print@i,w
  6528     0847  0779               	addwf	??_LCD_Print,w
  6529     0848  0084               	movwf	4
  6530     0849  087A               	movf	??_LCD_Print+1,w
  6531     084A  1803               	skipnc
  6532     084B  0A7A               	incf	??_LCD_Print+1,w
  6533     084C  0085               	movwf	5
  6534     084D  0012               	moviw fsr0++
  6535     084E  1D03               	btfss	3,2
  6536     084F  2851               	goto	u3771
  6537     0850  2852               	goto	u3770
  6538     0851                     u3771:
  6539     0851  2811               	goto	l2919
  6540     0852                     u3770:
  6541     0852                     l191:
  6542     0852  0008               	return
  6543     0853                     __end_of_LCD_Print:
  6544                           
  6545                           	psect	text14
  6546     1728                     __ptext14:	
  6547 ;; *************** function _LCD_Envoi *****************
  6548 ;; Defined at:
  6549 ;;		line 40 in file "LCD_IIC.c"
  6550 ;; Parameters:    Size  Location     Type
  6551 ;;  add             1    wreg     unsigned char 
  6552 ;;  data            1    4[COMMON] unsigned char 
  6553 ;; Auto vars:     Size  Location     Type
  6554 ;;  add             1    6[COMMON] unsigned char 
  6555 ;; Return value:  Size  Location     Type
  6556 ;;                  1    wreg      void 
  6557 ;; Registers used:
  6558 ;;		wreg, status,2, status,0, pclath, cstack
  6559 ;; Tracked objects:
  6560 ;;		On entry : 0/0
  6561 ;;		On exit  : 0/0
  6562 ;;		Unchanged: 0/0
  6563 ;; Data sizes:     COMMON   BANK0   BANK1   BANK2   BANK3   BANK4   BANK5   BANK6   BANK7   BANK8   BANK9  BANK10  BANK1
      +1  BANK12
  6564 ;;      Params:         1       0       0       0       0       0       0       0       0       0       0       0       
      +0       0
  6565 ;;      Locals:         1       0       0       0       0       0       0       0       0       0       0       0       
      +0       0
  6566 ;;      Temps:          1       0       0       0       0       0       0       0       0       0       0       0       
      +0       0
  6567 ;;      Totals:         3       0       0       0       0       0       0       0       0       0       0       0       
      +0       0
  6568 ;;Total ram usage:        3 bytes
  6569 ;; Hardware stack levels used: 1
  6570 ;; Hardware stack levels required when called: 2
  6571 ;; This function calls:
  6572 ;;		_IIC_Emis
  6573 ;; This function is called by:
  6574 ;;		_instructionLCD
  6575 ;;		_LCD_Begin
  6576 ;;		_LCD_Print
  6577 ;;		_LCD_On
  6578 ;;		_LCD_Off
  6579 ;;		_LCD_ShiftL
  6580 ;;		_LCD_ShiftR
  6581 ;; This function uses a non-reentrant model
  6582 ;;
  6583                           
  6584     1728                     _LCD_Envoi:	
  6585                           ;psect for function _LCD_Envoi
  6586                           
  6587                           
  6588                           ;incstack = 0
  6589                           ; Regs used in _LCD_Envoi: [wreg+status,2+status,0+pclath+cstack]
  6590                           ;LCD_Envoi@add stored from wreg
  6591     1728  00F6               	movwf	LCD_Envoi@add
  6592     1729                     l2707:
  6593                           
  6594                           ;LCD_IIC.c: 41:     data |= RS;
  6595     1729  3000               	movlw	0
  6596     172A  187C               	btfsc	_RS/(0+8),_RS& (0+7)
  6597     172B  3001               	movlw	1
  6598     172C  00F5               	movwf	??_LCD_Envoi
  6599     172D  0875               	movf	??_LCD_Envoi,w
  6600     172E  04F4               	iorwf	LCD_Envoi@data,f
  6601     172F                     l2709:
  6602                           
  6603                           ;LCD_IIC.c: 42:     IIC_Emis(add, 0, ((data & 0xFB) | backlight_val));
  6604     172F  01F1               	clrf	IIC_Emis@R_W
  6605     1730  0874               	movf	LCD_Envoi@data,w
  6606     1731  39FB               	andlw	251
  6607     1732  0021               	movlb	1	; select bank1
  6608     1733  0468               	iorwf	_backlight_val^(0+128),w
  6609     1734  00F2               	movwf	IIC_Emis@data
  6610     1735  0876               	movf	LCD_Envoi@add,w
  6611     1736  3196  266E  3197   	fcall	_IIC_Emis
  6612     1739                     l2711:
  6613     1739                     l2713:	
  6614                           ;LCD_IIC.c: 43:     _delay((unsigned long)((1)*(2000000UL/4000000.0)));
  6615                           
  6616                           
  6617                           ;LCD_IIC.c: 44:     IIC_Emis(add, 0, ((data | 0x04) | backlight_val));
  6618     1739  01F1               	clrf	IIC_Emis@R_W
  6619     173A  0874               	movf	LCD_Envoi@data,w
  6620     173B  0021               	movlb	1	; select bank1
  6621     173C  0468               	iorwf	_backlight_val^(0+128),w
  6622     173D  3804               	iorlw	4
  6623     173E  00F2               	movwf	IIC_Emis@data
  6624     173F  0876               	movf	LCD_Envoi@add,w
  6625     1740  3196  266E  3197   	fcall	_IIC_Emis
  6626     1743                     l2715:
  6627     1743                     l2717:	
  6628                           ;LCD_IIC.c: 45:     _delay((unsigned long)((1)*(2000000UL/4000000.0)));
  6629                           
  6630                           
  6631                           ;LCD_IIC.c: 46:     IIC_Emis(add, 0, ((data & 0xFB) | backlight_val));
  6632     1743  01F1               	clrf	IIC_Emis@R_W
  6633     1744  0874               	movf	LCD_Envoi@data,w
  6634     1745  39FB               	andlw	251
  6635     1746  0021               	movlb	1	; select bank1
  6636     1747  0468               	iorwf	_backlight_val^(0+128),w
  6637     1748  00F2               	movwf	IIC_Emis@data
  6638     1749  0876               	movf	LCD_Envoi@add,w
  6639     174A  3196  266E  3197   	fcall	_IIC_Emis
  6640     174D                     l2719:
  6641                           
  6642                           ;LCD_IIC.c: 47:     _delay((unsigned long)((100)*(2000000UL/4000000.0)));
  6643     174D  3010               	movlw	16
  6644     174E                     u4197:
  6645     174E  0B89               	decfsz	9,f
  6646     174F  2F4E               	goto	u4197
  6647     1750  3200               	nop2
  6648     1751                     l167:
  6649     1751  0008               	return
  6650     1752                     __end_of_LCD_Envoi:
  6651                           
  6652                           	psect	text15
  6653     165B                     __ptext15:	
  6654 ;; *************** function _ADC_Init *****************
  6655 ;; Defined at:
  6656 ;;		line 13 in file "ADC.c"
  6657 ;; Parameters:    Size  Location     Type
  6658 ;;		None
  6659 ;; Auto vars:     Size  Location     Type
  6660 ;;		None
  6661 ;; Return value:  Size  Location     Type
  6662 ;;                  1    wreg      void 
  6663 ;; Registers used:
  6664 ;;		wreg, status,2, status,0
  6665 ;; Tracked objects:
  6666 ;;		On entry : 0/0
  6667 ;;		On exit  : 0/0
  6668 ;;		Unchanged: 0/0
  6669 ;; Data sizes:     COMMON   BANK0   BANK1   BANK2   BANK3   BANK4   BANK5   BANK6   BANK7   BANK8   BANK9  BANK10  BANK1
      +1  BANK12
  6670 ;;      Params:         0       0       0       0       0       0       0       0       0       0       0       0       
      +0       0
  6671 ;;      Locals:         0       0       0       0       0       0       0       0       0       0       0       0       
      +0       0
  6672 ;;      Temps:          0       0       0       0       0       0       0       0       0       0       0       0       
      +0       0
  6673 ;;      Totals:         0       0       0       0       0       0       0       0       0       0       0       0       
      +0       0
  6674 ;;Total ram usage:        0 bytes
  6675 ;; Hardware stack levels used: 1
  6676 ;; Hardware stack levels required when called: 1
  6677 ;; This function calls:
  6678 ;;		Nothing
  6679 ;; This function is called by:
  6680 ;;		_main
  6681 ;; This function uses a non-reentrant model
  6682 ;;
  6683                           
  6684     165B                     _ADC_Init:	
  6685                           ;psect for function _ADC_Init
  6686                           
  6687     165B                     l2445:	
  6688                           ;incstack = 0
  6689                           ; Regs used in _ADC_Init: [wreg+status,2+status,0]
  6690                           
  6691                           
  6692                           ;ADC.c: 14:     ADCON1bits.ADFM = 1;
  6693     165B  0021               	movlb	1	; select bank1
  6694     165C  179E               	bsf	30,7	;volatile
  6695     165D                     l2447:
  6696                           
  6697                           ;ADC.c: 15:     ADCON1bits.ADCS = 0b110;
  6698     165D  081E               	movf	30,w	;volatile
  6699     165E  398F               	andlw	-113
  6700     165F  3860               	iorlw	96
  6701     1660  009E               	movwf	30	;volatile
  6702                           
  6703                           ;ADC.c: 16:     ADCON1bits.ADPREF = 0b11;
  6704     1661  3003               	movlw	3
  6705     1662  049E               	iorwf	30,f	;volatile
  6706     1663                     l2449:
  6707                           
  6708                           ;ADC.c: 18:     ANSELCbits.ANSC2 = 1;
  6709     1663  0023               	movlb	3	; select bank3
  6710     1664  150E               	bsf	14,2	;volatile
  6711     1665                     l2451:
  6712                           
  6713                           ;ADC.c: 19:     ANSELCbits.ANSC3 = 1;
  6714     1665  158E               	bsf	14,3	;volatile
  6715     1666                     l2453:
  6716                           
  6717                           ;ADC.c: 21:     TRISCbits.TRISC2 = 1;
  6718     1666  0021               	movlb	1	; select bank1
  6719     1667  150E               	bsf	14,2	;volatile
  6720     1668                     l2455:
  6721                           
  6722                           ;ADC.c: 22:     TRISCbits.TRISC3 = 1;
  6723     1668  158E               	bsf	14,3	;volatile
  6724     1669                     l2457:
  6725                           
  6726                           ;ADC.c: 24:     FVRCONbits.FVREN = 1;
  6727     1669  0022               	movlb	2	; select bank2
  6728     166A  1797               	bsf	23,7	;volatile
  6729                           
  6730                           ;ADC.c: 25:     FVRCONbits.ADFVR = 0b11;
  6731     166B  3003               	movlw	3
  6732     166C  0497               	iorwf	23,f	;volatile
  6733     166D                     l228:
  6734     166D  0008               	return
  6735     166E                     __end_of_ADC_Init:
  6736                           
  6737                           	psect	text16
  6738     0853                     __ptext16:	
  6739 ;; *************** function _ADC_Conv *****************
  6740 ;; Defined at:
  6741 ;;		line 28 in file "ADC.c"
  6742 ;; Parameters:    Size  Location     Type
  6743 ;;  Broche          1    wreg     unsigned char 
  6744 ;; Auto vars:     Size  Location     Type
  6745 ;;  Broche          1   60[BANK0 ] unsigned char 
  6746 ;;  Tens            4   56[BANK0 ] float 
  6747 ;;  result          2   61[BANK0 ] int 
  6748 ;; Return value:  Size  Location     Type
  6749 ;;                  4   52[BANK0 ] float 
  6750 ;; Registers used:
  6751 ;;		wreg, status,2, status,0, pclath, cstack
  6752 ;; Tracked objects:
  6753 ;;		On entry : 0/0
  6754 ;;		On exit  : 0/0
  6755 ;;		Unchanged: 0/0
  6756 ;; Data sizes:     COMMON   BANK0   BANK1   BANK2   BANK3   BANK4   BANK5   BANK6   BANK7   BANK8   BANK9  BANK10  BANK1
      +1  BANK12
  6757 ;;      Params:         0       4       0       0       0       0       0       0       0       0       0       0       
      +0       0
  6758 ;;      Locals:         0       7       0       0       0       0       0       0       0       0       0       0       
      +0       0
  6759 ;;      Temps:          1       0       0       0       0       0       0       0       0       0       0       0       
      +0       0
  6760 ;;      Totals:         1      11       0       0       0       0       0       0       0       0       0       0       
      +0       0
  6761 ;;Total ram usage:       12 bytes
  6762 ;; Hardware stack levels used: 1
  6763 ;; Hardware stack levels required when called: 3
  6764 ;; This function calls:
  6765 ;;		___flmul
  6766 ;;		___xxtofl
  6767 ;; This function is called by:
  6768 ;;		_main
  6769 ;; This function uses a non-reentrant model
  6770 ;;
  6771                           
  6772     0853                     _ADC_Conv:	
  6773                           ;psect for function _ADC_Conv
  6774                           
  6775                           
  6776                           ;incstack = 0
  6777                           ; Regs used in _ADC_Conv: [wreg+status,2+status,0+pclath+cstack]
  6778                           ;ADC_Conv@Broche stored from wreg
  6779     0853  0020               	movlb	0	; select bank0
  6780     0854  00DC               	movwf	ADC_Conv@Broche
  6781     0855                     l3063:
  6782                           
  6783                           ;ADC.c: 29:     ADCON0bits.CHS = Broche;
  6784     0855  085C               	movf	ADC_Conv@Broche,w
  6785     0856  00FA               	movwf	??_ADC_Conv
  6786     0857  0DFA               	rlf	??_ADC_Conv,f
  6787     0858  0DFA               	rlf	??_ADC_Conv,f
  6788     0859  0021               	movlb	1	; select bank1
  6789     085A  081D               	movf	29,w	;volatile
  6790     085B  067A               	xorwf	??_ADC_Conv,w
  6791     085C  3983               	andlw	-125
  6792     085D  067A               	xorwf	??_ADC_Conv,w
  6793     085E  009D               	movwf	29	;volatile
  6794     085F                     l3065:
  6795                           
  6796                           ;ADC.c: 30:     ADCON0bits.ADON = 1;
  6797     085F  141D               	bsf	29,0	;volatile
  6798     0860                     l3067:
  6799                           
  6800                           ;ADC.c: 31:     ADCON0bits.GO_nDONE = 1;
  6801     0860  149D               	bsf	29,1	;volatile
  6802     0861                     l231:	
  6803                           ;ADC.c: 32:     while (ADCON0bits.GO_nDONE);
  6804                           
  6805     0861  189D               	btfsc	29,1	;volatile
  6806     0862  2864               	goto	u3971
  6807     0863  2865               	goto	u3970
  6808     0864                     u3971:
  6809     0864  2861               	goto	l231
  6810     0865                     u3970:
  6811     0865                     l3069:
  6812                           
  6813                           ;ADC.c: 33:     int result = (int)(ADRESH<<8) + (int)ADRESL;
  6814     0865  081C               	movf	28,w	;volatile
  6815     0866  0020               	movlb	0	; select bank0
  6816     0867  00DE               	movwf	ADC_Conv@result+1
  6817     0868  0021               	movlb	1	; select bank1
  6818     0869  081B               	movf	27,w	;volatile
  6819     086A  0020               	movlb	0	; select bank0
  6820     086B  00DD               	movwf	ADC_Conv@result
  6821     086C                     l3071:
  6822                           
  6823                           ;ADC.c: 34:     float Tens = (float)result * (float)0.004;
  6824     086C  303B               	movlw	59
  6825     086D  00BD               	movwf	___flmul@b+3
  6826     086E  3083               	movlw	131
  6827     086F  00BC               	movwf	___flmul@b+2
  6828     0870  3012               	movlw	18
  6829     0871  00BB               	movwf	___flmul@b+1
  6830     0872  306F               	movlw	111
  6831     0873  00BA               	movwf	___flmul@b
  6832     0874  085D               	movf	ADC_Conv@result,w
  6833     0875  00F1               	movwf	___xxtofl@val
  6834     0876  085E               	movf	ADC_Conv@result+1,w
  6835     0877  00F2               	movwf	___xxtofl@val+1
  6836     0878  0D89               	rlf	9,f
  6837     0879  3B89               	subwfb	9,f
  6838     087A  0989               	comf	9,f
  6839     087B  00F3               	movwf	___xxtofl@val+2
  6840     087C  00F4               	movwf	___xxtofl@val+3
  6841     087D  3001               	movlw	1
  6842     087E  318A  2219  3188   	fcall	___xxtofl
  6843     0881  0874               	movf	?___xxtofl+3,w
  6844     0882  0020               	movlb	0	; select bank0
  6845     0883  00C1               	movwf	___flmul@a+3
  6846     0884  0873               	movf	?___xxtofl+2,w
  6847     0885  00C0               	movwf	___flmul@a+2
  6848     0886  0872               	movf	?___xxtofl+1,w
  6849     0887  00BF               	movwf	___flmul@a+1
  6850     0888  0871               	movf	?___xxtofl,w
  6851     0889  00BE               	movwf	___flmul@a
  6852     088A  3183  235B  3188   	fcall	___flmul
  6853     088D  0020               	movlb	0	; select bank0
  6854     088E  083D               	movf	?___flmul+3,w
  6855     088F  00DB               	movwf	ADC_Conv@Tens+3
  6856     0890  083C               	movf	?___flmul+2,w
  6857     0891  00DA               	movwf	ADC_Conv@Tens+2
  6858     0892  083B               	movf	?___flmul+1,w
  6859     0893  00D9               	movwf	ADC_Conv@Tens+1
  6860     0894  083A               	movf	?___flmul,w
  6861     0895  00D8               	movwf	ADC_Conv@Tens
  6862     0896                     l3073:
  6863                           
  6864                           ;ADC.c: 35:     ADCON0bits.ADON = 0;
  6865     0896  0021               	movlb	1	; select bank1
  6866     0897  101D               	bcf	29,0	;volatile
  6867     0898                     l3075:
  6868                           
  6869                           ;ADC.c: 36:     return Tens;
  6870     0898  0020               	movlb	0	; select bank0
  6871     0899  085B               	movf	ADC_Conv@Tens+3,w
  6872     089A  00D7               	movwf	?_ADC_Conv+3
  6873     089B  085A               	movf	ADC_Conv@Tens+2,w
  6874     089C  00D6               	movwf	?_ADC_Conv+2
  6875     089D  0859               	movf	ADC_Conv@Tens+1,w
  6876     089E  00D5               	movwf	?_ADC_Conv+1
  6877     089F  0858               	movf	ADC_Conv@Tens,w
  6878     08A0  00D4               	movwf	?_ADC_Conv
  6879     08A1                     l234:
  6880     08A1  0008               	return
  6881     08A2                     __end_of_ADC_Conv:
  6882                           
  6883                           	psect	text17
  6884     0596                     __ptext17:	
  6885 ;; *************** function _ADC_Afficher_Tension *****************
  6886 ;; Defined at:
  6887 ;;		line 39 in file "ADC.c"
  6888 ;; Parameters:    Size  Location     Type
  6889 ;;  LCD_ADD         1    wreg     unsigned char 
  6890 ;;  MesF            4   16[BANK1 ] float 
  6891 ;; Auto vars:     Size  Location     Type
  6892 ;;  LCD_ADD         1   36[BANK1 ] unsigned char 
  6893 ;;  dec             1   35[BANK1 ] unsigned char 
  6894 ;;  dix             1   34[BANK1 ] unsigned char 
  6895 ;;  cen             1   33[BANK1 ] unsigned char 
  6896 ;;  mil             1   28[BANK1 ] unsigned char 
  6897 ;; Return value:  Size  Location     Type
  6898 ;;                  1    wreg      void 
  6899 ;; Registers used:
  6900 ;;		wreg, status,2, status,0, pclath, cstack
  6901 ;; Tracked objects:
  6902 ;;		On entry : 0/0
  6903 ;;		On exit  : 0/0
  6904 ;;		Unchanged: 0/0
  6905 ;; Data sizes:     COMMON   BANK0   BANK1   BANK2   BANK3   BANK4   BANK5   BANK6   BANK7   BANK8   BANK9  BANK10  BANK1
      +1  BANK12
  6906 ;;      Params:         0       0       4       0       0       0       0       0       0       0       0       0       
      +0       0
  6907 ;;      Locals:         0       0      13       0       0       0       0       0       0       0       0       0       
      +0       0
  6908 ;;      Temps:          0       0       4       0       0       0       0       0       0       0       0       0       
      +0       0
  6909 ;;      Totals:         0       0      21       0       0       0       0       0       0       0       0       0       
      +0       0
  6910 ;;Total ram usage:       21 bytes
  6911 ;; Hardware stack levels used: 1
  6912 ;; Hardware stack levels required when called: 3
  6913 ;; This function calls:
  6914 ;;		___flmul
  6915 ;;		___flsub
  6916 ;;		___fltol
  6917 ;;		___xxtofl
  6918 ;;		_afficherCaractereLCD
  6919 ;; This function is called by:
  6920 ;;		_main
  6921 ;; This function uses a non-reentrant model
  6922 ;;
  6923                           
  6924     0596                     _ADC_Afficher_Tension:	
  6925                           ;psect for function _ADC_Afficher_Tension
  6926                           
  6927                           
  6928                           ;incstack = 0
  6929                           ; Regs used in _ADC_Afficher_Tension: [wreg+status,2+status,0+pclath+cstack]
  6930                           ;ADC_Afficher_Tension@LCD_ADD stored from wreg
  6931     0596  0021               	movlb	1	; select bank1
  6932     0597  00C4               	movwf	ADC_Afficher_Tension@LCD_ADD^(0+128)
  6933     0598                     l3079:
  6934                           
  6935                           ;ADC.c: 41:         char dec = (char)MesF;
  6936     0598  0833               	movf	(ADC_Afficher_Tension@MesF+3)^(0+128),w
  6937     0599  00AB               	movwf	(___fltol@f1+3)^(0+128)
  6938     059A  0832               	movf	(ADC_Afficher_Tension@MesF+2)^(0+128),w
  6939     059B  00AA               	movwf	(___fltol@f1+2)^(0+128)
  6940     059C  0831               	movf	(ADC_Afficher_Tension@MesF+1)^(0+128),w
  6941     059D  00A9               	movwf	(___fltol@f1+1)^(0+128)
  6942     059E  0830               	movf	ADC_Afficher_Tension@MesF^(0+128),w
  6943     059F  00A8               	movwf	___fltol@f1^(0+128)
  6944     05A0  3188  20A2  3185   	fcall	___fltol
  6945     05A3  0021               	movlb	1	; select bank1
  6946     05A4  0828               	movf	?___fltol^(0+128),w
  6947     05A5  00C3               	movwf	ADC_Afficher_Tension@dec^(0+128)
  6948                           
  6949                           ;ADC.c: 42:         afficherCaractereLCD(LCD_ADD, dec + 48);
  6950     05A6  0843               	movf	ADC_Afficher_Tension@dec^(0+128),w
  6951     05A7  3E30               	addlw	48
  6952     05A8  00F4               	movwf	afficherCaractereLCD@donnee
  6953     05A9  0844               	movf	ADC_Afficher_Tension@LCD_ADD^(0+128),w
  6954     05AA  3197  27BE  3185   	fcall	_afficherCaractereLCD
  6955                           
  6956                           ;ADC.c: 43:         afficherCaractereLCD(LCD_ADD, ',');
  6957     05AD  302C               	movlw	44
  6958     05AE  00F4               	movwf	afficherCaractereLCD@donnee
  6959     05AF  0021               	movlb	1	; select bank1
  6960     05B0  0844               	movf	ADC_Afficher_Tension@LCD_ADD^(0+128),w
  6961     05B1  3197  27BE  3185   	fcall	_afficherCaractereLCD
  6962                           
  6963                           ;ADC.c: 44:         char dix = (char)((MesF - dec) * 10);
  6964     05B4  0021               	movlb	1	; select bank1
  6965     05B5  0833               	movf	(ADC_Afficher_Tension@MesF+3)^(0+128),w
  6966     05B6  00A7               	movwf	(___flsub@b+3)^(0+128)
  6967     05B7  0832               	movf	(ADC_Afficher_Tension@MesF+2)^(0+128),w
  6968     05B8  00A6               	movwf	(___flsub@b+2)^(0+128)
  6969     05B9  0831               	movf	(ADC_Afficher_Tension@MesF+1)^(0+128),w
  6970     05BA  00A5               	movwf	(___flsub@b+1)^(0+128)
  6971     05BB  0830               	movf	ADC_Afficher_Tension@MesF^(0+128),w
  6972     05BC  00A4               	movwf	___flsub@b^(0+128)
  6973     05BD  0843               	movf	ADC_Afficher_Tension@dec^(0+128),w
  6974     05BE  00B4               	movwf	??_ADC_Afficher_Tension^(0+128)
  6975     05BF  01B5               	clrf	(??_ADC_Afficher_Tension^(0+128)+1)
  6976     05C0  01B6               	clrf	(??_ADC_Afficher_Tension^(0+128)+2)
  6977     05C1  01B7               	clrf	(??_ADC_Afficher_Tension^(0+128)+3)
  6978     05C2  0837               	movf	(??_ADC_Afficher_Tension+3)^(0+128),w
  6979     05C3  00F4               	movwf	___xxtofl@val+3
  6980     05C4  0836               	movf	(??_ADC_Afficher_Tension+2)^(0+128),w
  6981     05C5  00F3               	movwf	___xxtofl@val+2
  6982     05C6  0835               	movf	(??_ADC_Afficher_Tension+1)^(0+128),w
  6983     05C7  00F2               	movwf	___xxtofl@val+1
  6984     05C8  0834               	movf	??_ADC_Afficher_Tension^(0+128),w
  6985     05C9  00F1               	movwf	___xxtofl@val
  6986     05CA  3001               	movlw	1
  6987     05CB  318A  2219  3185   	fcall	___xxtofl
  6988     05CE  0874               	movf	?___xxtofl+3,w
  6989     05CF  0021               	movlb	1	; select bank1
  6990     05D0  00A3               	movwf	(___flsub@a+3)^(0+128)
  6991     05D1  0873               	movf	?___xxtofl+2,w
  6992     05D2  00A2               	movwf	(___flsub@a+2)^(0+128)
  6993     05D3  0872               	movf	?___xxtofl+1,w
  6994     05D4  00A1               	movwf	(___flsub@a+1)^(0+128)
  6995     05D5  0871               	movf	?___xxtofl,w
  6996     05D6  00A0               	movwf	___flsub@a^(0+128)
  6997     05D7  3197  2752  3185   	fcall	___flsub
  6998     05DA  0021               	movlb	1	; select bank1
  6999     05DB  0823               	movf	(?___flsub+3)^(0+128),w
  7000     05DC  0020               	movlb	0	; select bank0
  7001     05DD  00C1               	movwf	___flmul@a+3
  7002     05DE  0021               	movlb	1	; select bank1
  7003     05DF  0822               	movf	(?___flsub+2)^(0+128),w
  7004     05E0  0020               	movlb	0	; select bank0
  7005     05E1  00C0               	movwf	___flmul@a+2
  7006     05E2  0021               	movlb	1	; select bank1
  7007     05E3  0821               	movf	(?___flsub+1)^(0+128),w
  7008     05E4  0020               	movlb	0	; select bank0
  7009     05E5  00BF               	movwf	___flmul@a+1
  7010     05E6  0021               	movlb	1	; select bank1
  7011     05E7  0820               	movf	?___flsub^(0+128),w
  7012     05E8  0020               	movlb	0	; select bank0
  7013     05E9  00BE               	movwf	___flmul@a
  7014     05EA  3041               	movlw	65
  7015     05EB  00BD               	movwf	___flmul@b+3
  7016     05EC  3020               	movlw	32
  7017     05ED  00BC               	movwf	___flmul@b+2
  7018     05EE  3000               	movlw	0
  7019     05EF  00BB               	movwf	___flmul@b+1
  7020     05F0  3000               	movlw	0
  7021     05F1  00BA               	movwf	___flmul@b
  7022     05F2  3183  235B  3185   	fcall	___flmul
  7023     05F5  0020               	movlb	0	; select bank0
  7024     05F6  083D               	movf	?___flmul+3,w
  7025     05F7  0021               	movlb	1	; select bank1
  7026     05F8  00AB               	movwf	(___fltol@f1+3)^(0+128)
  7027     05F9  0020               	movlb	0	; select bank0
  7028     05FA  083C               	movf	?___flmul+2,w
  7029     05FB  0021               	movlb	1	; select bank1
  7030     05FC  00AA               	movwf	(___fltol@f1+2)^(0+128)
  7031     05FD  0020               	movlb	0	; select bank0
  7032     05FE  083B               	movf	?___flmul+1,w
  7033     05FF  0021               	movlb	1	; select bank1
  7034     0600  00A9               	movwf	(___fltol@f1+1)^(0+128)
  7035     0601  0020               	movlb	0	; select bank0
  7036     0602  083A               	movf	?___flmul,w
  7037     0603  0021               	movlb	1	; select bank1
  7038     0604  00A8               	movwf	___fltol@f1^(0+128)
  7039     0605  3188  20A2  3185   	fcall	___fltol
  7040     0608  0021               	movlb	1	; select bank1
  7041     0609  0828               	movf	?___fltol^(0+128),w
  7042     060A  00C2               	movwf	ADC_Afficher_Tension@dix^(0+128)
  7043                           
  7044                           ;ADC.c: 45:         afficherCaractereLCD(LCD_ADD, dix + 48);
  7045     060B  0842               	movf	ADC_Afficher_Tension@dix^(0+128),w
  7046     060C  3E30               	addlw	48
  7047     060D  00F4               	movwf	afficherCaractereLCD@donnee
  7048     060E  0844               	movf	ADC_Afficher_Tension@LCD_ADD^(0+128),w
  7049     060F  3197  27BE  3185   	fcall	_afficherCaractereLCD
  7050                           
  7051                           ;ADC.c: 46:         char cen = (char)(((MesF - dec)*10 - dix) * 10);
  7052     0612  0021               	movlb	1	; select bank1
  7053     0613  0833               	movf	(ADC_Afficher_Tension@MesF+3)^(0+128),w
  7054     0614  00A7               	movwf	(___flsub@b+3)^(0+128)
  7055     0615  0832               	movf	(ADC_Afficher_Tension@MesF+2)^(0+128),w
  7056     0616  00A6               	movwf	(___flsub@b+2)^(0+128)
  7057     0617  0831               	movf	(ADC_Afficher_Tension@MesF+1)^(0+128),w
  7058     0618  00A5               	movwf	(___flsub@b+1)^(0+128)
  7059     0619  0830               	movf	ADC_Afficher_Tension@MesF^(0+128),w
  7060     061A  00A4               	movwf	___flsub@b^(0+128)
  7061     061B  0843               	movf	ADC_Afficher_Tension@dec^(0+128),w
  7062     061C  00B4               	movwf	??_ADC_Afficher_Tension^(0+128)
  7063     061D  01B5               	clrf	(??_ADC_Afficher_Tension^(0+128)+1)
  7064     061E  01B6               	clrf	(??_ADC_Afficher_Tension^(0+128)+2)
  7065     061F  01B7               	clrf	(??_ADC_Afficher_Tension^(0+128)+3)
  7066     0620  0837               	movf	(??_ADC_Afficher_Tension+3)^(0+128),w
  7067     0621  00F4               	movwf	___xxtofl@val+3
  7068     0622  0836               	movf	(??_ADC_Afficher_Tension+2)^(0+128),w
  7069     0623  00F3               	movwf	___xxtofl@val+2
  7070     0624  0835               	movf	(??_ADC_Afficher_Tension+1)^(0+128),w
  7071     0625  00F2               	movwf	___xxtofl@val+1
  7072     0626  0834               	movf	??_ADC_Afficher_Tension^(0+128),w
  7073     0627  00F1               	movwf	___xxtofl@val
  7074     0628  3001               	movlw	1
  7075     0629  318A  2219  3185   	fcall	___xxtofl
  7076     062C  0874               	movf	?___xxtofl+3,w
  7077     062D  0021               	movlb	1	; select bank1
  7078     062E  00A3               	movwf	(___flsub@a+3)^(0+128)
  7079     062F  0873               	movf	?___xxtofl+2,w
  7080     0630  00A2               	movwf	(___flsub@a+2)^(0+128)
  7081     0631  0872               	movf	?___xxtofl+1,w
  7082     0632  00A1               	movwf	(___flsub@a+1)^(0+128)
  7083     0633  0871               	movf	?___xxtofl,w
  7084     0634  00A0               	movwf	___flsub@a^(0+128)
  7085     0635  3197  2752  3185   	fcall	___flsub
  7086     0638  0021               	movlb	1	; select bank1
  7087     0639  0823               	movf	(?___flsub+3)^(0+128),w
  7088     063A  0020               	movlb	0	; select bank0
  7089     063B  00C1               	movwf	___flmul@a+3
  7090     063C  0021               	movlb	1	; select bank1
  7091     063D  0822               	movf	(?___flsub+2)^(0+128),w
  7092     063E  0020               	movlb	0	; select bank0
  7093     063F  00C0               	movwf	___flmul@a+2
  7094     0640  0021               	movlb	1	; select bank1
  7095     0641  0821               	movf	(?___flsub+1)^(0+128),w
  7096     0642  0020               	movlb	0	; select bank0
  7097     0643  00BF               	movwf	___flmul@a+1
  7098     0644  0021               	movlb	1	; select bank1
  7099     0645  0820               	movf	?___flsub^(0+128),w
  7100     0646  0020               	movlb	0	; select bank0
  7101     0647  00BE               	movwf	___flmul@a
  7102     0648  3041               	movlw	65
  7103     0649  00BD               	movwf	___flmul@b+3
  7104     064A  3020               	movlw	32
  7105     064B  00BC               	movwf	___flmul@b+2
  7106     064C  3000               	movlw	0
  7107     064D  00BB               	movwf	___flmul@b+1
  7108     064E  3000               	movlw	0
  7109     064F  00BA               	movwf	___flmul@b
  7110     0650  3183  235B  3185   	fcall	___flmul
  7111     0653  0020               	movlb	0	; select bank0
  7112     0654  083D               	movf	?___flmul+3,w
  7113     0655  0021               	movlb	1	; select bank1
  7114     0656  00C0               	movwf	(_ADC_Afficher_Tension$1345+3)^(0+128)
  7115     0657  0020               	movlb	0	; select bank0
  7116     0658  083C               	movf	?___flmul+2,w
  7117     0659  0021               	movlb	1	; select bank1
  7118     065A  00BF               	movwf	(_ADC_Afficher_Tension$1345+2)^(0+128)
  7119     065B  0020               	movlb	0	; select bank0
  7120     065C  083B               	movf	?___flmul+1,w
  7121     065D  0021               	movlb	1	; select bank1
  7122     065E  00BE               	movwf	(_ADC_Afficher_Tension$1345+1)^(0+128)
  7123     065F  0020               	movlb	0	; select bank0
  7124     0660  083A               	movf	?___flmul,w
  7125     0661  0021               	movlb	1	; select bank1
  7126     0662  00BD               	movwf	_ADC_Afficher_Tension$1345^(0+128)
  7127                           
  7128                           ;ADC.c: 46:         char cen = (char)(((MesF - dec)*10 - dix) * 10);
  7129     0663  0840               	movf	(_ADC_Afficher_Tension$1345+3)^(0+128),w
  7130     0664  00A7               	movwf	(___flsub@b+3)^(0+128)
  7131     0665  083F               	movf	(_ADC_Afficher_Tension$1345+2)^(0+128),w
  7132     0666  00A6               	movwf	(___flsub@b+2)^(0+128)
  7133     0667  083E               	movf	(_ADC_Afficher_Tension$1345+1)^(0+128),w
  7134     0668  00A5               	movwf	(___flsub@b+1)^(0+128)
  7135     0669  083D               	movf	_ADC_Afficher_Tension$1345^(0+128),w
  7136     066A  00A4               	movwf	___flsub@b^(0+128)
  7137     066B  0842               	movf	ADC_Afficher_Tension@dix^(0+128),w
  7138     066C  00B4               	movwf	??_ADC_Afficher_Tension^(0+128)
  7139     066D  01B5               	clrf	(??_ADC_Afficher_Tension^(0+128)+1)
  7140     066E  01B6               	clrf	(??_ADC_Afficher_Tension^(0+128)+2)
  7141     066F  01B7               	clrf	(??_ADC_Afficher_Tension^(0+128)+3)
  7142     0670  0837               	movf	(??_ADC_Afficher_Tension+3)^(0+128),w
  7143     0671  00F4               	movwf	___xxtofl@val+3
  7144     0672  0836               	movf	(??_ADC_Afficher_Tension+2)^(0+128),w
  7145     0673  00F3               	movwf	___xxtofl@val+2
  7146     0674  0835               	movf	(??_ADC_Afficher_Tension+1)^(0+128),w
  7147     0675  00F2               	movwf	___xxtofl@val+1
  7148     0676  0834               	movf	??_ADC_Afficher_Tension^(0+128),w
  7149     0677  00F1               	movwf	___xxtofl@val
  7150     0678  3001               	movlw	1
  7151     0679  318A  2219  3185   	fcall	___xxtofl
  7152     067C  0874               	movf	?___xxtofl+3,w
  7153     067D  0021               	movlb	1	; select bank1
  7154     067E  00A3               	movwf	(___flsub@a+3)^(0+128)
  7155     067F  0873               	movf	?___xxtofl+2,w
  7156     0680  00A2               	movwf	(___flsub@a+2)^(0+128)
  7157     0681  0872               	movf	?___xxtofl+1,w
  7158     0682  00A1               	movwf	(___flsub@a+1)^(0+128)
  7159     0683  0871               	movf	?___xxtofl,w
  7160     0684  00A0               	movwf	___flsub@a^(0+128)
  7161     0685  3197  2752  3185   	fcall	___flsub
  7162     0688  0021               	movlb	1	; select bank1
  7163     0689  0823               	movf	(?___flsub+3)^(0+128),w
  7164     068A  0020               	movlb	0	; select bank0
  7165     068B  00C1               	movwf	___flmul@a+3
  7166     068C  0021               	movlb	1	; select bank1
  7167     068D  0822               	movf	(?___flsub+2)^(0+128),w
  7168     068E  0020               	movlb	0	; select bank0
  7169     068F  00C0               	movwf	___flmul@a+2
  7170     0690  0021               	movlb	1	; select bank1
  7171     0691  0821               	movf	(?___flsub+1)^(0+128),w
  7172     0692  0020               	movlb	0	; select bank0
  7173     0693  00BF               	movwf	___flmul@a+1
  7174     0694  0021               	movlb	1	; select bank1
  7175     0695  0820               	movf	?___flsub^(0+128),w
  7176     0696  0020               	movlb	0	; select bank0
  7177     0697  00BE               	movwf	___flmul@a
  7178     0698  3041               	movlw	65
  7179     0699  00BD               	movwf	___flmul@b+3
  7180     069A  3020               	movlw	32
  7181     069B  00BC               	movwf	___flmul@b+2
  7182     069C  3000               	movlw	0
  7183     069D  00BB               	movwf	___flmul@b+1
  7184     069E  3000               	movlw	0
  7185     069F  00BA               	movwf	___flmul@b
  7186     06A0  3183  235B  3185   	fcall	___flmul
  7187     06A3  0020               	movlb	0	; select bank0
  7188     06A4  083D               	movf	?___flmul+3,w
  7189     06A5  0021               	movlb	1	; select bank1
  7190     06A6  00AB               	movwf	(___fltol@f1+3)^(0+128)
  7191     06A7  0020               	movlb	0	; select bank0
  7192     06A8  083C               	movf	?___flmul+2,w
  7193     06A9  0021               	movlb	1	; select bank1
  7194     06AA  00AA               	movwf	(___fltol@f1+2)^(0+128)
  7195     06AB  0020               	movlb	0	; select bank0
  7196     06AC  083B               	movf	?___flmul+1,w
  7197     06AD  0021               	movlb	1	; select bank1
  7198     06AE  00A9               	movwf	(___fltol@f1+1)^(0+128)
  7199     06AF  0020               	movlb	0	; select bank0
  7200     06B0  083A               	movf	?___flmul,w
  7201     06B1  0021               	movlb	1	; select bank1
  7202     06B2  00A8               	movwf	___fltol@f1^(0+128)
  7203     06B3  3188  20A2  3185   	fcall	___fltol
  7204     06B6  0021               	movlb	1	; select bank1
  7205     06B7  0828               	movf	?___fltol^(0+128),w
  7206     06B8  00C1               	movwf	ADC_Afficher_Tension@cen^(0+128)
  7207                           
  7208                           ;ADC.c: 47:         afficherCaractereLCD(LCD_ADD, cen + 48);
  7209     06B9  0841               	movf	ADC_Afficher_Tension@cen^(0+128),w
  7210     06BA  3E30               	addlw	48
  7211     06BB  00F4               	movwf	afficherCaractereLCD@donnee
  7212     06BC  0844               	movf	ADC_Afficher_Tension@LCD_ADD^(0+128),w
  7213     06BD  3197  27BE  3185   	fcall	_afficherCaractereLCD
  7214                           
  7215                           ;ADC.c: 48:         char mil = (char)((((MesF - dec)*10 - dix) * 10 - cen)*10);
  7216     06C0  0021               	movlb	1	; select bank1
  7217     06C1  0833               	movf	(ADC_Afficher_Tension@MesF+3)^(0+128),w
  7218     06C2  00A7               	movwf	(___flsub@b+3)^(0+128)
  7219     06C3  0832               	movf	(ADC_Afficher_Tension@MesF+2)^(0+128),w
  7220     06C4  00A6               	movwf	(___flsub@b+2)^(0+128)
  7221     06C5  0831               	movf	(ADC_Afficher_Tension@MesF+1)^(0+128),w
  7222     06C6  00A5               	movwf	(___flsub@b+1)^(0+128)
  7223     06C7  0830               	movf	ADC_Afficher_Tension@MesF^(0+128),w
  7224     06C8  00A4               	movwf	___flsub@b^(0+128)
  7225     06C9  0843               	movf	ADC_Afficher_Tension@dec^(0+128),w
  7226     06CA  00B4               	movwf	??_ADC_Afficher_Tension^(0+128)
  7227     06CB  01B5               	clrf	(??_ADC_Afficher_Tension^(0+128)+1)
  7228     06CC  01B6               	clrf	(??_ADC_Afficher_Tension^(0+128)+2)
  7229     06CD  01B7               	clrf	(??_ADC_Afficher_Tension^(0+128)+3)
  7230     06CE  0837               	movf	(??_ADC_Afficher_Tension+3)^(0+128),w
  7231     06CF  00F4               	movwf	___xxtofl@val+3
  7232     06D0  0836               	movf	(??_ADC_Afficher_Tension+2)^(0+128),w
  7233     06D1  00F3               	movwf	___xxtofl@val+2
  7234     06D2  0835               	movf	(??_ADC_Afficher_Tension+1)^(0+128),w
  7235     06D3  00F2               	movwf	___xxtofl@val+1
  7236     06D4  0834               	movf	??_ADC_Afficher_Tension^(0+128),w
  7237     06D5  00F1               	movwf	___xxtofl@val
  7238     06D6  3001               	movlw	1
  7239     06D7  318A  2219  3185   	fcall	___xxtofl
  7240     06DA  0874               	movf	?___xxtofl+3,w
  7241     06DB  0021               	movlb	1	; select bank1
  7242     06DC  00A3               	movwf	(___flsub@a+3)^(0+128)
  7243     06DD  0873               	movf	?___xxtofl+2,w
  7244     06DE  00A2               	movwf	(___flsub@a+2)^(0+128)
  7245     06DF  0872               	movf	?___xxtofl+1,w
  7246     06E0  00A1               	movwf	(___flsub@a+1)^(0+128)
  7247     06E1  0871               	movf	?___xxtofl,w
  7248     06E2  00A0               	movwf	___flsub@a^(0+128)
  7249     06E3  3197  2752  3185   	fcall	___flsub
  7250     06E6  0021               	movlb	1	; select bank1
  7251     06E7  0823               	movf	(?___flsub+3)^(0+128),w
  7252     06E8  0020               	movlb	0	; select bank0
  7253     06E9  00C1               	movwf	___flmul@a+3
  7254     06EA  0021               	movlb	1	; select bank1
  7255     06EB  0822               	movf	(?___flsub+2)^(0+128),w
  7256     06EC  0020               	movlb	0	; select bank0
  7257     06ED  00C0               	movwf	___flmul@a+2
  7258     06EE  0021               	movlb	1	; select bank1
  7259     06EF  0821               	movf	(?___flsub+1)^(0+128),w
  7260     06F0  0020               	movlb	0	; select bank0
  7261     06F1  00BF               	movwf	___flmul@a+1
  7262     06F2  0021               	movlb	1	; select bank1
  7263     06F3  0820               	movf	?___flsub^(0+128),w
  7264     06F4  0020               	movlb	0	; select bank0
  7265     06F5  00BE               	movwf	___flmul@a
  7266     06F6  3041               	movlw	65
  7267     06F7  00BD               	movwf	___flmul@b+3
  7268     06F8  3020               	movlw	32
  7269     06F9  00BC               	movwf	___flmul@b+2
  7270     06FA  3000               	movlw	0
  7271     06FB  00BB               	movwf	___flmul@b+1
  7272     06FC  3000               	movlw	0
  7273     06FD  00BA               	movwf	___flmul@b
  7274     06FE  3183  235B  3185   	fcall	___flmul
  7275     0701  0020               	movlb	0	; select bank0
  7276     0702  083D               	movf	?___flmul+3,w
  7277     0703  0021               	movlb	1	; select bank1
  7278     0704  00C0               	movwf	(_ADC_Afficher_Tension$1345+3)^(0+128)
  7279     0705  0020               	movlb	0	; select bank0
  7280     0706  083C               	movf	?___flmul+2,w
  7281     0707  0021               	movlb	1	; select bank1
  7282     0708  00BF               	movwf	(_ADC_Afficher_Tension$1345+2)^(0+128)
  7283     0709  0020               	movlb	0	; select bank0
  7284     070A  083B               	movf	?___flmul+1,w
  7285     070B  0021               	movlb	1	; select bank1
  7286     070C  00BE               	movwf	(_ADC_Afficher_Tension$1345+1)^(0+128)
  7287     070D  0020               	movlb	0	; select bank0
  7288     070E  083A               	movf	?___flmul,w
  7289     070F  0021               	movlb	1	; select bank1
  7290     0710  00BD               	movwf	_ADC_Afficher_Tension$1345^(0+128)
  7291                           
  7292                           ;ADC.c: 48:         char mil = (char)((((MesF - dec)*10 - dix) * 10 - cen)*10);
  7293     0711  0840               	movf	(_ADC_Afficher_Tension$1345+3)^(0+128),w
  7294     0712  00A7               	movwf	(___flsub@b+3)^(0+128)
  7295     0713  083F               	movf	(_ADC_Afficher_Tension$1345+2)^(0+128),w
  7296     0714  00A6               	movwf	(___flsub@b+2)^(0+128)
  7297     0715  083E               	movf	(_ADC_Afficher_Tension$1345+1)^(0+128),w
  7298     0716  00A5               	movwf	(___flsub@b+1)^(0+128)
  7299     0717  083D               	movf	_ADC_Afficher_Tension$1345^(0+128),w
  7300     0718  00A4               	movwf	___flsub@b^(0+128)
  7301     0719  0842               	movf	ADC_Afficher_Tension@dix^(0+128),w
  7302     071A  00B4               	movwf	??_ADC_Afficher_Tension^(0+128)
  7303     071B  01B5               	clrf	(??_ADC_Afficher_Tension^(0+128)+1)
  7304     071C  01B6               	clrf	(??_ADC_Afficher_Tension^(0+128)+2)
  7305     071D  01B7               	clrf	(??_ADC_Afficher_Tension^(0+128)+3)
  7306     071E  0837               	movf	(??_ADC_Afficher_Tension+3)^(0+128),w
  7307     071F  00F4               	movwf	___xxtofl@val+3
  7308     0720  0836               	movf	(??_ADC_Afficher_Tension+2)^(0+128),w
  7309     0721  00F3               	movwf	___xxtofl@val+2
  7310     0722  0835               	movf	(??_ADC_Afficher_Tension+1)^(0+128),w
  7311     0723  00F2               	movwf	___xxtofl@val+1
  7312     0724  0834               	movf	??_ADC_Afficher_Tension^(0+128),w
  7313     0725  00F1               	movwf	___xxtofl@val
  7314     0726  3001               	movlw	1
  7315     0727  318A  2219  3185   	fcall	___xxtofl
  7316     072A  0874               	movf	?___xxtofl+3,w
  7317     072B  0021               	movlb	1	; select bank1
  7318     072C  00A3               	movwf	(___flsub@a+3)^(0+128)
  7319     072D  0873               	movf	?___xxtofl+2,w
  7320     072E  00A2               	movwf	(___flsub@a+2)^(0+128)
  7321     072F  0872               	movf	?___xxtofl+1,w
  7322     0730  00A1               	movwf	(___flsub@a+1)^(0+128)
  7323     0731  0871               	movf	?___xxtofl,w
  7324     0732  00A0               	movwf	___flsub@a^(0+128)
  7325     0733  3197  2752  3185   	fcall	___flsub
  7326     0736  0021               	movlb	1	; select bank1
  7327     0737  0823               	movf	(?___flsub+3)^(0+128),w
  7328     0738  0020               	movlb	0	; select bank0
  7329     0739  00C1               	movwf	___flmul@a+3
  7330     073A  0021               	movlb	1	; select bank1
  7331     073B  0822               	movf	(?___flsub+2)^(0+128),w
  7332     073C  0020               	movlb	0	; select bank0
  7333     073D  00C0               	movwf	___flmul@a+2
  7334     073E  0021               	movlb	1	; select bank1
  7335     073F  0821               	movf	(?___flsub+1)^(0+128),w
  7336     0740  0020               	movlb	0	; select bank0
  7337     0741  00BF               	movwf	___flmul@a+1
  7338     0742  0021               	movlb	1	; select bank1
  7339     0743  0820               	movf	?___flsub^(0+128),w
  7340     0744  0020               	movlb	0	; select bank0
  7341     0745  00BE               	movwf	___flmul@a
  7342     0746  3041               	movlw	65
  7343     0747  00BD               	movwf	___flmul@b+3
  7344     0748  3020               	movlw	32
  7345     0749  00BC               	movwf	___flmul@b+2
  7346     074A  3000               	movlw	0
  7347     074B  00BB               	movwf	___flmul@b+1
  7348     074C  3000               	movlw	0
  7349     074D  00BA               	movwf	___flmul@b
  7350     074E  3183  235B  3185   	fcall	___flmul
  7351     0751  0020               	movlb	0	; select bank0
  7352     0752  083D               	movf	?___flmul+3,w
  7353     0753  0021               	movlb	1	; select bank1
  7354     0754  00BB               	movwf	(_ADC_Afficher_Tension$1346+3)^(0+128)
  7355     0755  0020               	movlb	0	; select bank0
  7356     0756  083C               	movf	?___flmul+2,w
  7357     0757  0021               	movlb	1	; select bank1
  7358     0758  00BA               	movwf	(_ADC_Afficher_Tension$1346+2)^(0+128)
  7359     0759  0020               	movlb	0	; select bank0
  7360     075A  083B               	movf	?___flmul+1,w
  7361     075B  0021               	movlb	1	; select bank1
  7362     075C  00B9               	movwf	(_ADC_Afficher_Tension$1346+1)^(0+128)
  7363     075D  0020               	movlb	0	; select bank0
  7364     075E  083A               	movf	?___flmul,w
  7365     075F  0021               	movlb	1	; select bank1
  7366     0760  00B8               	movwf	_ADC_Afficher_Tension$1346^(0+128)
  7367                           
  7368                           ;ADC.c: 48:         char mil = (char)((((MesF - dec)*10 - dix) * 10 - cen)*10);
  7369     0761  083B               	movf	(_ADC_Afficher_Tension$1346+3)^(0+128),w
  7370     0762  00A7               	movwf	(___flsub@b+3)^(0+128)
  7371     0763  083A               	movf	(_ADC_Afficher_Tension$1346+2)^(0+128),w
  7372     0764  00A6               	movwf	(___flsub@b+2)^(0+128)
  7373     0765  0839               	movf	(_ADC_Afficher_Tension$1346+1)^(0+128),w
  7374     0766  00A5               	movwf	(___flsub@b+1)^(0+128)
  7375     0767  0838               	movf	_ADC_Afficher_Tension$1346^(0+128),w
  7376     0768  00A4               	movwf	___flsub@b^(0+128)
  7377     0769  0841               	movf	ADC_Afficher_Tension@cen^(0+128),w
  7378     076A  00B4               	movwf	??_ADC_Afficher_Tension^(0+128)
  7379     076B  01B5               	clrf	(??_ADC_Afficher_Tension^(0+128)+1)
  7380     076C  01B6               	clrf	(??_ADC_Afficher_Tension^(0+128)+2)
  7381     076D  01B7               	clrf	(??_ADC_Afficher_Tension^(0+128)+3)
  7382     076E  0837               	movf	(??_ADC_Afficher_Tension+3)^(0+128),w
  7383     076F  00F4               	movwf	___xxtofl@val+3
  7384     0770  0836               	movf	(??_ADC_Afficher_Tension+2)^(0+128),w
  7385     0771  00F3               	movwf	___xxtofl@val+2
  7386     0772  0835               	movf	(??_ADC_Afficher_Tension+1)^(0+128),w
  7387     0773  00F2               	movwf	___xxtofl@val+1
  7388     0774  0834               	movf	??_ADC_Afficher_Tension^(0+128),w
  7389     0775  00F1               	movwf	___xxtofl@val
  7390     0776  3001               	movlw	1
  7391     0777  318A  2219  3185   	fcall	___xxtofl
  7392     077A  0874               	movf	?___xxtofl+3,w
  7393     077B  0021               	movlb	1	; select bank1
  7394     077C  00A3               	movwf	(___flsub@a+3)^(0+128)
  7395     077D  0873               	movf	?___xxtofl+2,w
  7396     077E  00A2               	movwf	(___flsub@a+2)^(0+128)
  7397     077F  0872               	movf	?___xxtofl+1,w
  7398     0780  00A1               	movwf	(___flsub@a+1)^(0+128)
  7399     0781  0871               	movf	?___xxtofl,w
  7400     0782  00A0               	movwf	___flsub@a^(0+128)
  7401     0783  3197  2752  3185   	fcall	___flsub
  7402     0786  0021               	movlb	1	; select bank1
  7403     0787  0823               	movf	(?___flsub+3)^(0+128),w
  7404     0788  0020               	movlb	0	; select bank0
  7405     0789  00C1               	movwf	___flmul@a+3
  7406     078A  0021               	movlb	1	; select bank1
  7407     078B  0822               	movf	(?___flsub+2)^(0+128),w
  7408     078C  0020               	movlb	0	; select bank0
  7409     078D  00C0               	movwf	___flmul@a+2
  7410     078E  0021               	movlb	1	; select bank1
  7411     078F  0821               	movf	(?___flsub+1)^(0+128),w
  7412     0790  0020               	movlb	0	; select bank0
  7413     0791  00BF               	movwf	___flmul@a+1
  7414     0792  0021               	movlb	1	; select bank1
  7415     0793  0820               	movf	?___flsub^(0+128),w
  7416     0794  0020               	movlb	0	; select bank0
  7417     0795  00BE               	movwf	___flmul@a
  7418     0796  3041               	movlw	65
  7419     0797  00BD               	movwf	___flmul@b+3
  7420     0798  3020               	movlw	32
  7421     0799  00BC               	movwf	___flmul@b+2
  7422     079A  3000               	movlw	0
  7423     079B  00BB               	movwf	___flmul@b+1
  7424     079C  3000               	movlw	0
  7425     079D  00BA               	movwf	___flmul@b
  7426     079E  3183  235B  3185   	fcall	___flmul
  7427     07A1  0020               	movlb	0	; select bank0
  7428     07A2  083D               	movf	?___flmul+3,w
  7429     07A3  0021               	movlb	1	; select bank1
  7430     07A4  00AB               	movwf	(___fltol@f1+3)^(0+128)
  7431     07A5  0020               	movlb	0	; select bank0
  7432     07A6  083C               	movf	?___flmul+2,w
  7433     07A7  0021               	movlb	1	; select bank1
  7434     07A8  00AA               	movwf	(___fltol@f1+2)^(0+128)
  7435     07A9  0020               	movlb	0	; select bank0
  7436     07AA  083B               	movf	?___flmul+1,w
  7437     07AB  0021               	movlb	1	; select bank1
  7438     07AC  00A9               	movwf	(___fltol@f1+1)^(0+128)
  7439     07AD  0020               	movlb	0	; select bank0
  7440     07AE  083A               	movf	?___flmul,w
  7441     07AF  0021               	movlb	1	; select bank1
  7442     07B0  00A8               	movwf	___fltol@f1^(0+128)
  7443     07B1  3188  20A2  3185   	fcall	___fltol
  7444     07B4  0021               	movlb	1	; select bank1
  7445     07B5  0828               	movf	?___fltol^(0+128),w
  7446     07B6  00BC               	movwf	ADC_Afficher_Tension@mil^(0+128)
  7447                           
  7448                           ;ADC.c: 49:         afficherCaractereLCD(LCD_ADD, mil + 48);
  7449     07B7  083C               	movf	ADC_Afficher_Tension@mil^(0+128),w
  7450     07B8  3E30               	addlw	48
  7451     07B9  00F4               	movwf	afficherCaractereLCD@donnee
  7452     07BA  0844               	movf	ADC_Afficher_Tension@LCD_ADD^(0+128),w
  7453     07BB  3197  27BE  3185   	fcall	_afficherCaractereLCD
  7454                           
  7455                           ;ADC.c: 50:         afficherCaractereLCD(LCD_ADD, 'V');
  7456     07BE  3056               	movlw	86
  7457     07BF  00F4               	movwf	afficherCaractereLCD@donnee
  7458     07C0  0021               	movlb	1	; select bank1
  7459     07C1  0844               	movf	ADC_Afficher_Tension@LCD_ADD^(0+128),w
  7460     07C2  3197  27BE  3185   	fcall	_afficherCaractereLCD
  7461     07C5                     l237:
  7462     07C5  0008               	return
  7463     07C6                     __end_of_ADC_Afficher_Tension:
  7464                           
  7465                           	psect	text18
  7466     17BE                     __ptext18:	
  7467 ;; *************** function _afficherCaractereLCD *****************
  7468 ;; Defined at:
  7469 ;;		line 108 in file "LCD_IIC.c"
  7470 ;; Parameters:    Size  Location     Type
  7471 ;;  adresse         1    wreg     unsigned char 
  7472 ;;  donnee          1    4[COMMON] unsigned char 
  7473 ;; Auto vars:     Size  Location     Type
  7474 ;;  adresse         1    8[COMMON] unsigned char 
  7475 ;;  donneeL         1    7[COMMON] unsigned char 
  7476 ;;  donneeH         1    6[COMMON] unsigned char 
  7477 ;; Return value:  Size  Location     Type
  7478 ;;                  1    wreg      void 
  7479 ;; Registers used:
  7480 ;;		wreg, status,2, status,0, pclath, cstack
  7481 ;; Tracked objects:
  7482 ;;		On entry : 0/0
  7483 ;;		On exit  : 0/0
  7484 ;;		Unchanged: 0/0
  7485 ;; Data sizes:     COMMON   BANK0   BANK1   BANK2   BANK3   BANK4   BANK5   BANK6   BANK7   BANK8   BANK9  BANK10  BANK1
      +1  BANK12
  7486 ;;      Params:         1       0       0       0       0       0       0       0       0       0       0       0       
      +0       0
  7487 ;;      Locals:         3       0       0       0       0       0       0       0       0       0       0       0       
      +0       0
  7488 ;;      Temps:          1       0       0       0       0       0       0       0       0       0       0       0       
      +0       0
  7489 ;;      Totals:         5       0       0       0       0       0       0       0       0       0       0       0       
      +0       0
  7490 ;;Total ram usage:        5 bytes
  7491 ;; Hardware stack levels used: 1
  7492 ;; Hardware stack levels required when called: 2
  7493 ;; This function calls:
  7494 ;;		_IIC_Emis
  7495 ;; This function is called by:
  7496 ;;		_ADC_Afficher_Tension
  7497 ;;		_FREQ_Afficher
  7498 ;; This function uses a non-reentrant model
  7499 ;;
  7500                           
  7501     17BE                     _afficherCaractereLCD:	
  7502                           ;psect for function _afficherCaractereLCD
  7503                           
  7504                           
  7505                           ;incstack = 0
  7506                           ; Regs used in _afficherCaractereLCD: [wreg+status,2+status,0+pclath+cstack]
  7507                           ;afficherCaractereLCD@adresse stored from wreg
  7508     17BE  00F8               	movwf	afficherCaractereLCD@adresse
  7509     17BF                     l2935:
  7510                           
  7511                           ;LCD_IIC.c: 109:     char donneeH = ( donnee & 0xF0 );
  7512     17BF  0874               	movf	afficherCaractereLCD@donnee,w
  7513     17C0  39F0               	andlw	240
  7514     17C1  00F6               	movwf	afficherCaractereLCD@donneeH
  7515     17C2                     l2937:
  7516                           
  7517                           ;LCD_IIC.c: 110:     char donneeL = ( donnee << 4 ) & 0xF0;
  7518     17C2  0874               	movf	afficherCaractereLCD@donnee,w
  7519     17C3  00F5               	movwf	??_afficherCaractereLCD
  7520     17C4  3003               	movlw	3
  7521     17C5                     u3815:
  7522     17C5  35F5               	lslf	??_afficherCaractereLCD,f
  7523     17C6  3EFF               	addlw	-1
  7524     17C7  1D03               	skipz
  7525     17C8  2FC5               	goto	u3815
  7526     17C9  3575               	lslf	??_afficherCaractereLCD,w
  7527     17CA  39F0               	andlw	240
  7528     17CB  00F7               	movwf	afficherCaractereLCD@donneeL
  7529     17CC                     l2939:
  7530                           
  7531                           ;LCD_IIC.c: 111:     IIC_Emis( adresse, 0, donneeH + 9 );
  7532     17CC  01F1               	clrf	IIC_Emis@R_W
  7533     17CD  0876               	movf	afficherCaractereLCD@donneeH,w
  7534     17CE  3E09               	addlw	9
  7535     17CF  00F2               	movwf	IIC_Emis@data
  7536     17D0  0878               	movf	afficherCaractereLCD@adresse,w
  7537     17D1  3196  266E  3197   	fcall	_IIC_Emis
  7538     17D4                     l2941:
  7539                           
  7540                           ;LCD_IIC.c: 112:     IIC_Emis( adresse, 0, donneeH + 13 );
  7541     17D4  01F1               	clrf	IIC_Emis@R_W
  7542     17D5  0876               	movf	afficherCaractereLCD@donneeH,w
  7543     17D6  3E0D               	addlw	13
  7544     17D7  00F2               	movwf	IIC_Emis@data
  7545     17D8  0878               	movf	afficherCaractereLCD@adresse,w
  7546     17D9  3196  266E  3197   	fcall	_IIC_Emis
  7547     17DC                     l2943:
  7548                           
  7549                           ;LCD_IIC.c: 113:     IIC_Emis( adresse, 0, donneeH + 9 );
  7550     17DC  01F1               	clrf	IIC_Emis@R_W
  7551     17DD  0876               	movf	afficherCaractereLCD@donneeH,w
  7552     17DE  3E09               	addlw	9
  7553     17DF  00F2               	movwf	IIC_Emis@data
  7554     17E0  0878               	movf	afficherCaractereLCD@adresse,w
  7555     17E1  3196  266E  3197   	fcall	_IIC_Emis
  7556     17E4                     l2945:
  7557                           
  7558                           ;LCD_IIC.c: 114:     IIC_Emis( adresse, 0, donneeL +9 );
  7559     17E4  01F1               	clrf	IIC_Emis@R_W
  7560     17E5  0877               	movf	afficherCaractereLCD@donneeL,w
  7561     17E6  3E09               	addlw	9
  7562     17E7  00F2               	movwf	IIC_Emis@data
  7563     17E8  0878               	movf	afficherCaractereLCD@adresse,w
  7564     17E9  3196  266E  3197   	fcall	_IIC_Emis
  7565     17EC                     l2947:
  7566                           
  7567                           ;LCD_IIC.c: 115:     IIC_Emis( adresse, 0, donneeL + 13 );
  7568     17EC  01F1               	clrf	IIC_Emis@R_W
  7569     17ED  0877               	movf	afficherCaractereLCD@donneeL,w
  7570     17EE  3E0D               	addlw	13
  7571     17EF  00F2               	movwf	IIC_Emis@data
  7572     17F0  0878               	movf	afficherCaractereLCD@adresse,w
  7573     17F1  3196  266E  3197   	fcall	_IIC_Emis
  7574     17F4                     l2949:
  7575                           
  7576                           ;LCD_IIC.c: 116:     IIC_Emis( adresse, 0, donneeL + 9 );
  7577     17F4  01F1               	clrf	IIC_Emis@R_W
  7578     17F5  0877               	movf	afficherCaractereLCD@donneeL,w
  7579     17F6  3E09               	addlw	9
  7580     17F7  00F2               	movwf	IIC_Emis@data
  7581     17F8  0878               	movf	afficherCaractereLCD@adresse,w
  7582     17F9  3196  266E  3197   	fcall	_IIC_Emis
  7583     17FC                     l2951:
  7584                           
  7585                           ;LCD_IIC.c: 117:     _delay((unsigned long)((37)*(2000000UL/4000000.0)));
  7586     17FC  3006               	movlw	6
  7587     17FD                     u4207:
  7588     17FD  0B89               	decfsz	9,f
  7589     17FE  2FFD               	goto	u4207
  7590     17FF                     l194:
  7591     17FF  0008               	return
  7592     1800                     __end_of_afficherCaractereLCD:
  7593                           
  7594                           	psect	text19
  7595     166E                     __ptext19:	
  7596 ;; *************** function _IIC_Emis *****************
  7597 ;; Defined at:
  7598 ;;		line 53 in file "IIC.c"
  7599 ;; Parameters:    Size  Location     Type
  7600 ;;  adr             1    wreg     unsigned char 
  7601 ;;  R_W             1    1[COMMON] unsigned char 
  7602 ;;  data            1    2[COMMON] unsigned char 
  7603 ;; Auto vars:     Size  Location     Type
  7604 ;;  adr             1    3[COMMON] unsigned char 
  7605 ;; Return value:  Size  Location     Type
  7606 ;;                  1    wreg      void 
  7607 ;; Registers used:
  7608 ;;		wreg, status,2, status,0
  7609 ;; Tracked objects:
  7610 ;;		On entry : 0/0
  7611 ;;		On exit  : 0/0
  7612 ;;		Unchanged: 0/0
  7613 ;; Data sizes:     COMMON   BANK0   BANK1   BANK2   BANK3   BANK4   BANK5   BANK6   BANK7   BANK8   BANK9  BANK10  BANK1
      +1  BANK12
  7614 ;;      Params:         2       0       0       0       0       0       0       0       0       0       0       0       
      +0       0
  7615 ;;      Locals:         1       0       0       0       0       0       0       0       0       0       0       0       
      +0       0
  7616 ;;      Temps:          0       0       0       0       0       0       0       0       0       0       0       0       
      +0       0
  7617 ;;      Totals:         3       0       0       0       0       0       0       0       0       0       0       0       
      +0       0
  7618 ;;Total ram usage:        3 bytes
  7619 ;; Hardware stack levels used: 1
  7620 ;; Hardware stack levels required when called: 1
  7621 ;; This function calls:
  7622 ;;		Nothing
  7623 ;; This function is called by:
  7624 ;;		_LCD_Envoi
  7625 ;;		_afficherCaractereLCD
  7626 ;; This function uses a non-reentrant model
  7627 ;;
  7628                           
  7629     166E                     _IIC_Emis:	
  7630                           ;psect for function _IIC_Emis
  7631                           
  7632                           
  7633                           ;incstack = 0
  7634                           ; Regs used in _IIC_Emis: [wreg+status,2+status,0]
  7635                           ;IIC_Emis@adr stored from wreg
  7636     166E  00F3               	movwf	IIC_Emis@adr
  7637     166F                     l2699:
  7638                           
  7639                           ;IIC.c: 55:     SSP1CON2 |= 0x01;
  7640     166F  0024               	movlb	4	; select bank4
  7641     1670  1416               	bsf	22,0	;volatile
  7642     1671                     l139:	
  7643                           ;IIC.c: 58:     while ((SSP1CON2 & 0x01) && (!(SSP1STAT & 0x08)));
  7644                           
  7645     1671  1C16               	btfss	22,0	;volatile
  7646     1672  2E74               	goto	u3271
  7647     1673  2E75               	goto	u3270
  7648     1674                     u3271:
  7649     1674  2E79               	goto	l2703
  7650     1675                     u3270:
  7651     1675                     l2701:
  7652     1675  1D94               	btfss	20,3	;volatile
  7653     1676  2E78               	goto	u3281
  7654     1677  2E79               	goto	u3280
  7655     1678                     u3281:
  7656     1678  2E71               	goto	l139
  7657     1679                     u3280:
  7658     1679                     l2703:
  7659                           
  7660                           ;IIC.c: 61:     SSP1BUF = (adr << 1) + R_W;
  7661     1679  3573               	lslf	IIC_Emis@adr,w
  7662     167A  0771               	addwf	IIC_Emis@R_W,w
  7663     167B  0091               	movwf	17	;volatile
  7664     167C                     l144:	
  7665                           ;IIC.c: 64:     while (SSP1STAT & 0x01);
  7666                           
  7667     167C  1814               	btfsc	20,0	;volatile
  7668     167D  2E7F               	goto	u3291
  7669     167E  2E80               	goto	u3290
  7670     167F                     u3291:
  7671     167F  2E7C               	goto	l144
  7672     1680                     u3290:
  7673     1680                     l147:
  7674     1680  1B16               	btfsc	22,6	;volatile
  7675     1681  2E83               	goto	u3301
  7676     1682  2E84               	goto	u3300
  7677     1683                     u3301:
  7678     1683  2E80               	goto	l147
  7679     1684                     u3300:
  7680     1684                     l2705:
  7681                           
  7682                           ;IIC.c: 68:     SSP1BUF = data;
  7683     1684  0872               	movf	IIC_Emis@data,w
  7684     1685  0091               	movwf	17	;volatile
  7685     1686                     l150:	
  7686                           ;IIC.c: 71:     while (SSP1STAT & 0x01);
  7687                           
  7688     1686  1814               	btfsc	20,0	;volatile
  7689     1687  2E89               	goto	u3311
  7690     1688  2E8A               	goto	u3310
  7691     1689                     u3311:
  7692     1689  2E86               	goto	l150
  7693     168A                     u3310:
  7694     168A                     l153:
  7695     168A  1B16               	btfsc	22,6	;volatile
  7696     168B  2E8D               	goto	u3321
  7697     168C  2E8E               	goto	u3320
  7698     168D                     u3321:
  7699     168D  2E8A               	goto	l153
  7700     168E                     u3320:
  7701     168E                     l155:
  7702                           
  7703                           ;IIC.c: 75:     SSP1CON2 |= 0x04;
  7704     168E  1516               	bsf	22,2	;volatile
  7705     168F                     l156:
  7706     168F  0008               	return
  7707     1690                     __end_of_IIC_Emis:
  7708                           
  7709                           	psect	text20
  7710     0A19                     __ptext20:	
  7711 ;; *************** function ___xxtofl *****************
  7712 ;; Defined at:
  7713 ;;		line 10 in file "C:\Program Files\Microchip\xc8\v2.40\pic\sources\c99\common\xxtofl.c"
  7714 ;; Parameters:    Size  Location     Type
  7715 ;;  sign            1    wreg     unsigned char 
  7716 ;;  val             4    1[COMMON] long 
  7717 ;; Auto vars:     Size  Location     Type
  7718 ;;  sign            1    0[BANK0 ] unsigned char 
  7719 ;;  arg             4    2[BANK0 ] unsigned long 
  7720 ;;  exp             1    1[BANK0 ] unsigned char 
  7721 ;; Return value:  Size  Location     Type
  7722 ;;                  4    1[COMMON] unsigned char 
  7723 ;; Registers used:
  7724 ;;		wreg, status,2, status,0
  7725 ;; Tracked objects:
  7726 ;;		On entry : 0/0
  7727 ;;		On exit  : 0/0
  7728 ;;		Unchanged: 0/0
  7729 ;; Data sizes:     COMMON   BANK0   BANK1   BANK2   BANK3   BANK4   BANK5   BANK6   BANK7   BANK8   BANK9  BANK10  BANK1
      +1  BANK12
  7730 ;;      Params:         4       0       0       0       0       0       0       0       0       0       0       0       
      +0       0
  7731 ;;      Locals:         0       6       0       0       0       0       0       0       0       0       0       0       
      +0       0
  7732 ;;      Temps:          4       0       0       0       0       0       0       0       0       0       0       0       
      +0       0
  7733 ;;      Totals:         8       6       0       0       0       0       0       0       0       0       0       0       
      +0       0
  7734 ;;Total ram usage:       14 bytes
  7735 ;; Hardware stack levels used: 1
  7736 ;; Hardware stack levels required when called: 1
  7737 ;; This function calls:
  7738 ;;		Nothing
  7739 ;; This function is called by:
  7740 ;;		_main
  7741 ;;		_ADC_Conv
  7742 ;;		_ADC_Afficher_Tension
  7743 ;;		_FREQ_Afficher
  7744 ;; This function uses a non-reentrant model
  7745 ;;
  7746                           
  7747     0A19                     ___xxtofl:	
  7748                           ;psect for function ___xxtofl
  7749                           
  7750                           
  7751                           ;incstack = 0
  7752                           ; Regs used in ___xxtofl: [wreg+status,2+status,0]
  7753                           ;___xxtofl@sign stored from wreg
  7754     0A19  0020               	movlb	0	; select bank0
  7755     0A1A  00A0               	movwf	___xxtofl@sign
  7756     0A1B                     l2363:
  7757     0A1B  0820               	movf	___xxtofl@sign,w
  7758     0A1C  1903               	btfsc	3,2
  7759     0A1D  2A1F               	goto	u2921
  7760     0A1E  2A20               	goto	u2920
  7761     0A1F                     u2921:
  7762     0A1F  2A34               	goto	l2369
  7763     0A20                     u2920:
  7764     0A20                     l2365:
  7765     0A20  1FF4               	btfss	___xxtofl@val+3,7
  7766     0A21  2A23               	goto	u2931
  7767     0A22  2A24               	goto	u2930
  7768     0A23                     u2931:
  7769     0A23  2A34               	goto	l2369
  7770     0A24                     u2930:
  7771     0A24                     l2367:
  7772     0A24  0971               	comf	___xxtofl@val,w
  7773     0A25  00A2               	movwf	___xxtofl@arg
  7774     0A26  0972               	comf	___xxtofl@val+1,w
  7775     0A27  00A3               	movwf	___xxtofl@arg+1
  7776     0A28  0973               	comf	___xxtofl@val+2,w
  7777     0A29  00A4               	movwf	___xxtofl@arg+2
  7778     0A2A  0974               	comf	___xxtofl@val+3,w
  7779     0A2B  00A5               	movwf	___xxtofl@arg+3
  7780     0A2C  0AA2               	incf	___xxtofl@arg,f
  7781     0A2D  1903               	skipnz
  7782     0A2E  0AA3               	incf	___xxtofl@arg+1,f
  7783     0A2F  1903               	skipnz
  7784     0A30  0AA4               	incf	___xxtofl@arg+2,f
  7785     0A31  1903               	skipnz
  7786     0A32  0AA5               	incf	___xxtofl@arg+3,f
  7787     0A33  2A3C               	goto	l786
  7788     0A34                     l2369:
  7789     0A34  0874               	movf	___xxtofl@val+3,w
  7790     0A35  00A5               	movwf	___xxtofl@arg+3
  7791     0A36  0873               	movf	___xxtofl@val+2,w
  7792     0A37  00A4               	movwf	___xxtofl@arg+2
  7793     0A38  0872               	movf	___xxtofl@val+1,w
  7794     0A39  00A3               	movwf	___xxtofl@arg+1
  7795     0A3A  0871               	movf	___xxtofl@val,w
  7796     0A3B  00A2               	movwf	___xxtofl@arg
  7797     0A3C                     l786:
  7798     0A3C  0874               	movf	___xxtofl@val+3,w
  7799     0A3D  0473               	iorwf	___xxtofl@val+2,w
  7800     0A3E  0472               	iorwf	___xxtofl@val+1,w
  7801     0A3F  0471               	iorwf	___xxtofl@val,w
  7802     0A40  1D03               	skipz
  7803     0A41  2A43               	goto	u2941
  7804     0A42  2A44               	goto	u2940
  7805     0A43                     u2941:
  7806     0A43  2A4D               	goto	l2375
  7807     0A44                     u2940:
  7808     0A44                     l2371:
  7809     0A44  3000               	movlw	0
  7810     0A45  00F4               	movwf	?___xxtofl+3
  7811     0A46  3000               	movlw	0
  7812     0A47  00F3               	movwf	?___xxtofl+2
  7813     0A48  3000               	movlw	0
  7814     0A49  00F2               	movwf	?___xxtofl+1
  7815     0A4A  3000               	movlw	0
  7816     0A4B  00F1               	movwf	?___xxtofl
  7817     0A4C  2AC3               	goto	l788
  7818     0A4D                     l2375:
  7819     0A4D  3096               	movlw	150
  7820     0A4E  00A1               	movwf	___xxtofl@exp
  7821     0A4F  2A5B               	goto	l2379
  7822     0A50                     l2377:
  7823     0A50  3001               	movlw	1
  7824     0A51  00F5               	movwf	??___xxtofl
  7825     0A52  0875               	movf	??___xxtofl,w
  7826     0A53  07A1               	addwf	___xxtofl@exp,f
  7827     0A54  3001               	movlw	1
  7828     0A55                     u2955:
  7829     0A55  36A5               	lsrf	___xxtofl@arg+3,f
  7830     0A56  0CA4               	rrf	___xxtofl@arg+2,f
  7831     0A57  0CA3               	rrf	___xxtofl@arg+1,f
  7832     0A58  0CA2               	rrf	___xxtofl@arg,f
  7833     0A59  0B89               	decfsz	9,f
  7834     0A5A  2A55               	goto	u2955
  7835     0A5B                     l2379:
  7836     0A5B  30FE               	movlw	254
  7837     0A5C  0525               	andwf	___xxtofl@arg+3,w
  7838     0A5D  1D03               	btfss	3,2
  7839     0A5E  2A60               	goto	u2961
  7840     0A5F  2A61               	goto	u2960
  7841     0A60                     u2961:
  7842     0A60  2A50               	goto	l2377
  7843     0A61                     u2960:
  7844     0A61  2A75               	goto	l792
  7845     0A62                     l2381:
  7846     0A62  3001               	movlw	1
  7847     0A63  00F5               	movwf	??___xxtofl
  7848     0A64  0875               	movf	??___xxtofl,w
  7849     0A65  07A1               	addwf	___xxtofl@exp,f
  7850     0A66                     l2383:
  7851     0A66  3001               	movlw	1
  7852     0A67  07A2               	addwf	___xxtofl@arg,f
  7853     0A68  3000               	movlw	0
  7854     0A69  3DA3               	addwfc	___xxtofl@arg+1,f
  7855     0A6A  3000               	movlw	0
  7856     0A6B  3DA4               	addwfc	___xxtofl@arg+2,f
  7857     0A6C  3000               	movlw	0
  7858     0A6D  3DA5               	addwfc	___xxtofl@arg+3,f
  7859     0A6E                     l2385:
  7860     0A6E  3001               	movlw	1
  7861     0A6F                     u2975:
  7862     0A6F  36A5               	lsrf	___xxtofl@arg+3,f
  7863     0A70  0CA4               	rrf	___xxtofl@arg+2,f
  7864     0A71  0CA3               	rrf	___xxtofl@arg+1,f
  7865     0A72  0CA2               	rrf	___xxtofl@arg,f
  7866     0A73  0B89               	decfsz	9,f
  7867     0A74  2A6F               	goto	u2975
  7868     0A75                     l792:
  7869     0A75  30FF               	movlw	255
  7870     0A76  0525               	andwf	___xxtofl@arg+3,w
  7871     0A77  1D03               	btfss	3,2
  7872     0A78  2A7A               	goto	u2981
  7873     0A79  2A7B               	goto	u2980
  7874     0A7A                     u2981:
  7875     0A7A  2A62               	goto	l2381
  7876     0A7B                     u2980:
  7877     0A7B  2A85               	goto	l2389
  7878     0A7C                     l2387:
  7879     0A7C  3001               	movlw	1
  7880     0A7D  02A1               	subwf	___xxtofl@exp,f
  7881     0A7E  3001               	movlw	1
  7882     0A7F                     u2995:
  7883     0A7F  35A2               	lslf	___xxtofl@arg,f
  7884     0A80  0DA3               	rlf	___xxtofl@arg+1,f
  7885     0A81  0DA4               	rlf	___xxtofl@arg+2,f
  7886     0A82  0DA5               	rlf	___xxtofl@arg+3,f
  7887     0A83  0B89               	decfsz	9,f
  7888     0A84  2A7F               	goto	u2995
  7889     0A85                     l2389:
  7890     0A85  1BA4               	btfsc	___xxtofl@arg+2,7
  7891     0A86  2A88               	goto	u3001
  7892     0A87  2A89               	goto	u3000
  7893     0A88                     u3001:
  7894     0A88  2A8F               	goto	l799
  7895     0A89                     u3000:
  7896     0A89                     l2391:
  7897     0A89  3002               	movlw	2
  7898     0A8A  0221               	subwf	___xxtofl@exp,w
  7899     0A8B  1803               	skipnc
  7900     0A8C  2A8E               	goto	u3011
  7901     0A8D  2A8F               	goto	u3010
  7902     0A8E                     u3011:
  7903     0A8E  2A7C               	goto	l2387
  7904     0A8F                     u3010:
  7905     0A8F                     l799:
  7906     0A8F  1821               	btfsc	___xxtofl@exp,0
  7907     0A90  2A92               	goto	u3021
  7908     0A91  2A93               	goto	u3020
  7909     0A92                     u3021:
  7910     0A92  2A9B               	goto	l800
  7911     0A93                     u3020:
  7912     0A93                     l2393:
  7913     0A93  30FF               	movlw	255
  7914     0A94  05A2               	andwf	___xxtofl@arg,f
  7915     0A95  30FF               	movlw	255
  7916     0A96  05A3               	andwf	___xxtofl@arg+1,f
  7917     0A97  307F               	movlw	127
  7918     0A98  05A4               	andwf	___xxtofl@arg+2,f
  7919     0A99  30FF               	movlw	255
  7920     0A9A  05A5               	andwf	___xxtofl@arg+3,f
  7921     0A9B                     l800:
  7922     0A9B  1003               	clrc
  7923     0A9C  0CA1               	rrf	___xxtofl@exp,f
  7924     0A9D                     l2395:
  7925     0A9D  0821               	movf	___xxtofl@exp,w
  7926     0A9E  00F5               	movwf	??___xxtofl
  7927     0A9F  01F6               	clrf	??___xxtofl+1
  7928     0AA0  01F7               	clrf	??___xxtofl+2
  7929     0AA1  01F8               	clrf	??___xxtofl+3
  7930     0AA2  3018               	movlw	24
  7931     0AA3                     u3035:
  7932     0AA3  35F5               	lslf	??___xxtofl,f
  7933     0AA4  0DF6               	rlf	??___xxtofl+1,f
  7934     0AA5  0DF7               	rlf	??___xxtofl+2,f
  7935     0AA6  0DF8               	rlf	??___xxtofl+3,f
  7936     0AA7                     u3030:
  7937     0AA7  0B89               	decfsz	9,f
  7938     0AA8  2AA3               	goto	u3035
  7939     0AA9  0875               	movf	??___xxtofl,w
  7940     0AAA  04A2               	iorwf	___xxtofl@arg,f
  7941     0AAB  0876               	movf	??___xxtofl+1,w
  7942     0AAC  04A3               	iorwf	___xxtofl@arg+1,f
  7943     0AAD  0877               	movf	??___xxtofl+2,w
  7944     0AAE  04A4               	iorwf	___xxtofl@arg+2,f
  7945     0AAF  0878               	movf	??___xxtofl+3,w
  7946     0AB0  04A5               	iorwf	___xxtofl@arg+3,f
  7947     0AB1                     l2397:
  7948     0AB1  0820               	movf	___xxtofl@sign,w
  7949     0AB2  1903               	btfsc	3,2
  7950     0AB3  2AB5               	goto	u3041
  7951     0AB4  2AB6               	goto	u3040
  7952     0AB5                     u3041:
  7953     0AB5  2ABB               	goto	l2403
  7954     0AB6                     u3040:
  7955     0AB6                     l2399:
  7956     0AB6  1FF4               	btfss	___xxtofl@val+3,7
  7957     0AB7  2AB9               	goto	u3051
  7958     0AB8  2ABA               	goto	u3050
  7959     0AB9                     u3051:
  7960     0AB9  2ABB               	goto	l2403
  7961     0ABA                     u3050:
  7962     0ABA                     l2401:
  7963     0ABA  17A5               	bsf	___xxtofl@arg+3,7
  7964     0ABB                     l2403:
  7965     0ABB  0825               	movf	___xxtofl@arg+3,w
  7966     0ABC  00F4               	movwf	?___xxtofl+3
  7967     0ABD  0824               	movf	___xxtofl@arg+2,w
  7968     0ABE  00F3               	movwf	?___xxtofl+2
  7969     0ABF  0823               	movf	___xxtofl@arg+1,w
  7970     0AC0  00F2               	movwf	?___xxtofl+1
  7971     0AC1  0822               	movf	___xxtofl@arg,w
  7972     0AC2  00F1               	movwf	?___xxtofl
  7973     0AC3                     l788:
  7974     0AC3  0008               	return
  7975     0AC4                     __end_of___xxtofl:
  7976                           
  7977                           	psect	text21
  7978     08A2                     __ptext21:	
  7979 ;; *************** function ___fltol *****************
  7980 ;; Defined at:
  7981 ;;		line 43 in file "C:\Program Files\Microchip\xc8\v2.40\pic\sources\c99\common\fltol.c"
  7982 ;; Parameters:    Size  Location     Type
  7983 ;;  f1              4    8[BANK1 ] unsigned char 
  7984 ;; Auto vars:     Size  Location     Type
  7985 ;;  exp1            1   11[COMMON] unsigned char 
  7986 ;;  sign1           1   10[COMMON] unsigned char 
  7987 ;; Return value:  Size  Location     Type
  7988 ;;                  4    8[BANK1 ] long 
  7989 ;; Registers used:
  7990 ;;		wreg, status,2, status,0
  7991 ;; Tracked objects:
  7992 ;;		On entry : 0/0
  7993 ;;		On exit  : 0/0
  7994 ;;		Unchanged: 0/0
  7995 ;; Data sizes:     COMMON   BANK0   BANK1   BANK2   BANK3   BANK4   BANK5   BANK6   BANK7   BANK8   BANK9  BANK10  BANK1
      +1  BANK12
  7996 ;;      Params:         0       0       4       0       0       0       0       0       0       0       0       0       
      +0       0
  7997 ;;      Locals:         2       0       0       0       0       0       0       0       0       0       0       0       
      +0       0
  7998 ;;      Temps:          0       0       4       0       0       0       0       0       0       0       0       0       
      +0       0
  7999 ;;      Totals:         2       0       8       0       0       0       0       0       0       0       0       0       
      +0       0
  8000 ;;Total ram usage:       10 bytes
  8001 ;; Hardware stack levels used: 1
  8002 ;; Hardware stack levels required when called: 1
  8003 ;; This function calls:
  8004 ;;		Nothing
  8005 ;; This function is called by:
  8006 ;;		_ADC_Afficher_Tension
  8007 ;;		_FREQ_Afficher
  8008 ;; This function uses a non-reentrant model
  8009 ;;
  8010                           
  8011     08A2                     ___fltol:	
  8012                           ;psect for function ___fltol
  8013                           
  8014     08A2                     l2975:	
  8015                           ;incstack = 0
  8016                           ; Regs used in ___fltol: [wreg+status,2+status,0]
  8017                           
  8018     08A2  1003               	clrc
  8019     08A3  0021               	movlb	1	; select bank1
  8020     08A4  0D2A               	rlf	(___fltol@f1+2)^(0+128),w
  8021     08A5  0D2B               	rlf	(___fltol@f1+3)^(0+128),w
  8022     08A6  00FB               	movwf	___fltol@exp1
  8023     08A7  087B               	movf	___fltol@exp1,w
  8024     08A8  1D03               	btfss	3,2
  8025     08A9  28AB               	goto	u3871
  8026     08AA  28AC               	goto	u3870
  8027     08AB                     u3871:
  8028     08AB  28B5               	goto	l2981
  8029     08AC                     u3870:
  8030     08AC                     l2977:
  8031     08AC  3000               	movlw	0
  8032     08AD  00AB               	movwf	(?___fltol+3)^(0+128)
  8033     08AE  3000               	movlw	0
  8034     08AF  00AA               	movwf	(?___fltol+2)^(0+128)
  8035     08B0  3000               	movlw	0
  8036     08B1  00A9               	movwf	(?___fltol+1)^(0+128)
  8037     08B2  3000               	movlw	0
  8038     08B3  00A8               	movwf	?___fltol^(0+128)
  8039     08B4  2912               	goto	l539
  8040     08B5                     l2981:
  8041     08B5  0828               	movf	___fltol@f1^(0+128),w
  8042     08B6  00AC               	movwf	??___fltol^(0+128)
  8043     08B7  0829               	movf	(___fltol@f1+1)^(0+128),w
  8044     08B8  00AD               	movwf	(??___fltol^(0+128)+1)
  8045     08B9  082A               	movf	(___fltol@f1+2)^(0+128),w
  8046     08BA  00AE               	movwf	(??___fltol^(0+128)+2)
  8047     08BB  082B               	movf	(___fltol@f1+3)^(0+128),w
  8048     08BC  00AF               	movwf	(??___fltol^(0+128)+3)
  8049     08BD  301F               	movlw	31
  8050     08BE                     u3885:
  8051     08BE  36AF               	lsrf	(??___fltol^(0+128)+3),f
  8052     08BF  0CAE               	rrf	(??___fltol^(0+128)+2),f
  8053     08C0  0CAD               	rrf	(??___fltol^(0+128)+1),f
  8054     08C1  0CAC               	rrf	??___fltol^(0+128),f
  8055     08C2                     u3880:
  8056     08C2  0B89               	decfsz	9,f
  8057     08C3  28BE               	goto	u3885
  8058     08C4  082C               	movf	??___fltol^(0+128),w
  8059     08C5  00FA               	movwf	___fltol@sign1
  8060     08C6                     l2983:
  8061     08C6  17AA               	bsf	(___fltol@f1^(0+128)+2),7
  8062     08C7                     l2985:
  8063     08C7  30FF               	movlw	255
  8064     08C8  05A8               	andwf	___fltol@f1^(0+128),f
  8065     08C9  30FF               	movlw	255
  8066     08CA  05A9               	andwf	(___fltol@f1+1)^(0+128),f
  8067     08CB  30FF               	movlw	255
  8068     08CC  05AA               	andwf	(___fltol@f1+2)^(0+128),f
  8069     08CD  3000               	movlw	0
  8070     08CE  05AB               	andwf	(___fltol@f1+3)^(0+128),f
  8071     08CF                     l2987:
  8072     08CF  3096               	movlw	150
  8073     08D0  02FB               	subwf	___fltol@exp1,f
  8074     08D1                     l2989:
  8075     08D1  1FFB               	btfss	___fltol@exp1,7
  8076     08D2  28D4               	goto	u3891
  8077     08D3  28D5               	goto	u3890
  8078     08D4                     u3891:
  8079     08D4  28ED               	goto	l2999
  8080     08D5                     u3890:
  8081     08D5                     l2991:
  8082     08D5  087B               	movf	___fltol@exp1,w
  8083     08D6  3A80               	xorlw	128
  8084     08D7  3E97               	addlw	151
  8085     08D8  1803               	skipnc
  8086     08D9  28DB               	goto	u3901
  8087     08DA  28DC               	goto	u3900
  8088     08DB                     u3901:
  8089     08DB  28DD               	goto	l2997
  8090     08DC                     u3900:
  8091     08DC  28AC               	goto	l2977
  8092     08DD                     l2997:
  8093     08DD  3001               	movlw	1
  8094     08DE                     u3915:
  8095     08DE  36AB               	lsrf	(___fltol@f1+3)^(0+128),f
  8096     08DF  0CAA               	rrf	(___fltol@f1+2)^(0+128),f
  8097     08E0  0CA9               	rrf	(___fltol@f1+1)^(0+128),f
  8098     08E1  0CA8               	rrf	___fltol@f1^(0+128),f
  8099     08E2  0B89               	decfsz	9,f
  8100     08E3  28DE               	goto	u3915
  8101     08E4  3001               	movlw	1
  8102     08E5  00AC               	movwf	??___fltol^(0+128)
  8103     08E6  082C               	movf	??___fltol^(0+128),w
  8104     08E7  07FB               	addwf	___fltol@exp1,f
  8105     08E8  1D03               	btfss	3,2
  8106     08E9  28EB               	goto	u3921
  8107     08EA  28EC               	goto	u3920
  8108     08EB                     u3921:
  8109     08EB  28DD               	goto	l2997
  8110     08EC                     u3920:
  8111     08EC  2902               	goto	l3007
  8112     08ED                     l2999:
  8113     08ED  3020               	movlw	32
  8114     08EE  027B               	subwf	___fltol@exp1,w
  8115     08EF  1C03               	skipc
  8116     08F0  28F2               	goto	u3931
  8117     08F1  28F3               	goto	u3930
  8118     08F2                     u3931:
  8119     08F2  28FD               	goto	l546
  8120     08F3                     u3930:
  8121     08F3  28AC               	goto	l2977
  8122     08F4                     l3005:
  8123     08F4  3001               	movlw	1
  8124     08F5                     u3945:
  8125     08F5  35A8               	lslf	___fltol@f1^(0+128),f
  8126     08F6  0DA9               	rlf	(___fltol@f1+1)^(0+128),f
  8127     08F7  0DAA               	rlf	(___fltol@f1+2)^(0+128),f
  8128     08F8  0DAB               	rlf	(___fltol@f1+3)^(0+128),f
  8129     08F9  0B89               	decfsz	9,f
  8130     08FA  28F5               	goto	u3945
  8131     08FB  3001               	movlw	1
  8132     08FC  02FB               	subwf	___fltol@exp1,f
  8133     08FD                     l546:
  8134     08FD  087B               	movf	___fltol@exp1,w
  8135     08FE  1D03               	btfss	3,2
  8136     08FF  2901               	goto	u3951
  8137     0900  2902               	goto	u3950
  8138     0901                     u3951:
  8139     0901  28F4               	goto	l3005
  8140     0902                     u3950:
  8141     0902                     l3007:
  8142     0902  087A               	movf	___fltol@sign1,w
  8143     0903  1903               	btfsc	3,2
  8144     0904  2906               	goto	u3961
  8145     0905  2907               	goto	u3960
  8146     0906                     u3961:
  8147     0906  2912               	goto	l549
  8148     0907                     u3960:
  8149     0907                     l3009:
  8150     0907  09A8               	comf	___fltol@f1^(0+128),f
  8151     0908  09A9               	comf	(___fltol@f1+1)^(0+128),f
  8152     0909  09AA               	comf	(___fltol@f1+2)^(0+128),f
  8153     090A  09AB               	comf	(___fltol@f1+3)^(0+128),f
  8154     090B  0AA8               	incf	___fltol@f1^(0+128),f
  8155     090C  1903               	skipnz
  8156     090D  0AA9               	incf	(___fltol@f1+1)^(0+128),f
  8157     090E  1903               	skipnz
  8158     090F  0AAA               	incf	(___fltol@f1+2)^(0+128),f
  8159     0910  1903               	skipnz
  8160     0911  0AAB               	incf	(___fltol@f1+3)^(0+128),f
  8161     0912                     l549:
  8162     0912                     l539:
  8163     0912  0008               	return
  8164     0913                     __end_of___fltol:
  8165                           
  8166                           	psect	text22
  8167     1752                     __ptext22:	
  8168 ;; *************** function ___flsub *****************
  8169 ;; Defined at:
  8170 ;;		line 242 in file "C:\Program Files\Microchip\xc8\v2.40\pic\sources\c99\common\sprcadd.c"
  8171 ;; Parameters:    Size  Location     Type
  8172 ;;  a               4    0[BANK1 ] long 
  8173 ;;  b               4    4[BANK1 ] long 
  8174 ;; Auto vars:     Size  Location     Type
  8175 ;;		None
  8176 ;; Return value:  Size  Location     Type
  8177 ;;                  4    0[BANK1 ] long 
  8178 ;; Registers used:
  8179 ;;		wreg, status,2, status,0, pclath, cstack
  8180 ;; Tracked objects:
  8181 ;;		On entry : 0/0
  8182 ;;		On exit  : 0/0
  8183 ;;		Unchanged: 0/0
  8184 ;; Data sizes:     COMMON   BANK0   BANK1   BANK2   BANK3   BANK4   BANK5   BANK6   BANK7   BANK8   BANK9  BANK10  BANK1
      +1  BANK12
  8185 ;;      Params:         0       0       8       0       0       0       0       0       0       0       0       0       
      +0       0
  8186 ;;      Locals:         0       0       0       0       0       0       0       0       0       0       0       0       
      +0       0
  8187 ;;      Temps:          0       0       0       0       0       0       0       0       0       0       0       0       
      +0       0
  8188 ;;      Totals:         0       0       8       0       0       0       0       0       0       0       0       0       
      +0       0
  8189 ;;Total ram usage:        8 bytes
  8190 ;; Hardware stack levels used: 1
  8191 ;; Hardware stack levels required when called: 2
  8192 ;; This function calls:
  8193 ;;		___fladd
  8194 ;; This function is called by:
  8195 ;;		_ADC_Afficher_Tension
  8196 ;;		_FREQ_Afficher
  8197 ;; This function uses a non-reentrant model
  8198 ;;
  8199                           
  8200     1752                     ___flsub:	
  8201                           ;psect for function ___flsub
  8202                           
  8203     1752                     l3011:	
  8204                           ;incstack = 0
  8205                           ; Regs used in ___flsub: [wreg+status,2+status,0+pclath+cstack]
  8206                           
  8207     1752  3080               	movlw	128
  8208     1753  0021               	movlb	1	; select bank1
  8209     1754  06A3               	xorwf	(___flsub@a+3)^(0+128),f
  8210     1755                     l3013:
  8211     1755  0827               	movf	(___flsub@b+3)^(0+128),w
  8212     1756  0020               	movlb	0	; select bank0
  8213     1757  00A9               	movwf	___fladd@b+3
  8214     1758  0021               	movlb	1	; select bank1
  8215     1759  0826               	movf	(___flsub@b+2)^(0+128),w
  8216     175A  0020               	movlb	0	; select bank0
  8217     175B  00A8               	movwf	___fladd@b+2
  8218     175C  0021               	movlb	1	; select bank1
  8219     175D  0825               	movf	(___flsub@b+1)^(0+128),w
  8220     175E  0020               	movlb	0	; select bank0
  8221     175F  00A7               	movwf	___fladd@b+1
  8222     1760  0021               	movlb	1	; select bank1
  8223     1761  0824               	movf	___flsub@b^(0+128),w
  8224     1762  0020               	movlb	0	; select bank0
  8225     1763  00A6               	movwf	___fladd@b
  8226     1764  0021               	movlb	1	; select bank1
  8227     1765  0823               	movf	(___flsub@a+3)^(0+128),w
  8228     1766  0020               	movlb	0	; select bank0
  8229     1767  00AD               	movwf	___fladd@a+3
  8230     1768  0021               	movlb	1	; select bank1
  8231     1769  0822               	movf	(___flsub@a+2)^(0+128),w
  8232     176A  0020               	movlb	0	; select bank0
  8233     176B  00AC               	movwf	___fladd@a+2
  8234     176C  0021               	movlb	1	; select bank1
  8235     176D  0821               	movf	(___flsub@a+1)^(0+128),w
  8236     176E  0020               	movlb	0	; select bank0
  8237     176F  00AB               	movwf	___fladd@a+1
  8238     1770  0021               	movlb	1	; select bank1
  8239     1771  0820               	movf	___flsub@a^(0+128),w
  8240     1772  0020               	movlb	0	; select bank0
  8241     1773  00AA               	movwf	___fladd@a
  8242     1774  318D  25F8  3197   	fcall	___fladd
  8243     1777  0020               	movlb	0	; select bank0
  8244     1778  0829               	movf	?___fladd+3,w
  8245     1779  0021               	movlb	1	; select bank1
  8246     177A  00A3               	movwf	(?___flsub+3)^(0+128)
  8247     177B  0020               	movlb	0	; select bank0
  8248     177C  0828               	movf	?___fladd+2,w
  8249     177D  0021               	movlb	1	; select bank1
  8250     177E  00A2               	movwf	(?___flsub+2)^(0+128)
  8251     177F  0020               	movlb	0	; select bank0
  8252     1780  0827               	movf	?___fladd+1,w
  8253     1781  0021               	movlb	1	; select bank1
  8254     1782  00A1               	movwf	(?___flsub+1)^(0+128)
  8255     1783  0020               	movlb	0	; select bank0
  8256     1784  0826               	movf	?___fladd,w
  8257     1785  0021               	movlb	1	; select bank1
  8258     1786  00A0               	movwf	?___flsub^(0+128)
  8259     1787                     l692:
  8260     1787  0008               	return
  8261     1788                     __end_of___flsub:
  8262                           
  8263                           	psect	text23
  8264     0DF8                     __ptext23:	
  8265 ;; *************** function ___fladd *****************
  8266 ;; Defined at:
  8267 ;;		line 10 in file "C:\Program Files\Microchip\xc8\v2.40\pic\sources\c99\common\sprcadd.c"
  8268 ;; Parameters:    Size  Location     Type
  8269 ;;  b               4    6[BANK0 ] long 
  8270 ;;  a               4   10[BANK0 ] long 
  8271 ;; Auto vars:     Size  Location     Type
  8272 ;;  grs             1   25[BANK0 ] unsigned char 
  8273 ;;  bexp            1   24[BANK0 ] unsigned char 
  8274 ;;  aexp            1   23[BANK0 ] unsigned char 
  8275 ;;  signs           1   22[BANK0 ] unsigned char 
  8276 ;; Return value:  Size  Location     Type
  8277 ;;                  4    6[BANK0 ] unsigned char 
  8278 ;; Registers used:
  8279 ;;		wreg, status,2, status,0
  8280 ;; Tracked objects:
  8281 ;;		On entry : 0/0
  8282 ;;		On exit  : 0/0
  8283 ;;		Unchanged: 0/0
  8284 ;; Data sizes:     COMMON   BANK0   BANK1   BANK2   BANK3   BANK4   BANK5   BANK6   BANK7   BANK8   BANK9  BANK10  BANK1
      +1  BANK12
  8285 ;;      Params:         0       8       0       0       0       0       0       0       0       0       0       0       
      +0       0
  8286 ;;      Locals:         0       4       0       0       0       0       0       0       0       0       0       0       
      +0       0
  8287 ;;      Temps:          0       8       0       0       0       0       0       0       0       0       0       0       
      +0       0
  8288 ;;      Totals:         0      20       0       0       0       0       0       0       0       0       0       0       
      +0       0
  8289 ;;Total ram usage:       20 bytes
  8290 ;; Hardware stack levels used: 1
  8291 ;; Hardware stack levels required when called: 1
  8292 ;; This function calls:
  8293 ;;		Nothing
  8294 ;; This function is called by:
  8295 ;;		_main
  8296 ;;		___flsub
  8297 ;; This function uses a non-reentrant model
  8298 ;;
  8299                           
  8300     0DF8                     ___fladd:	
  8301                           ;psect for function ___fladd
  8302                           
  8303     0DF8                     l2721:	
  8304                           ;incstack = 0
  8305                           ; Regs used in ___fladd: [wreg+status,2+status,0]
  8306                           
  8307     0DF8  0020               	movlb	0	; select bank0
  8308     0DF9  0829               	movf	___fladd@b+3,w
  8309     0DFA  3980               	andlw	128
  8310     0DFB  00B6               	movwf	___fladd@signs
  8311     0DFC                     l2723:
  8312     0DFC  3529               	lslf	___fladd@b+3,w
  8313     0DFD  00B8               	movwf	___fladd@bexp
  8314     0DFE                     l2725:
  8315     0DFE  1FA8               	btfss	___fladd@b+2,7
  8316     0DFF  2E01               	goto	u3331
  8317     0E00  2E02               	goto	u3330
  8318     0E01                     u3331:
  8319     0E01  2E03               	goto	l2729
  8320     0E02                     u3330:
  8321     0E02                     l2727:
  8322     0E02  1438               	bsf	___fladd@bexp,0
  8323     0E03                     l2729:
  8324     0E03  0838               	movf	___fladd@bexp,w
  8325     0E04  1903               	btfsc	3,2
  8326     0E05  2E07               	goto	u3341
  8327     0E06  2E08               	goto	u3340
  8328     0E07                     u3341:
  8329     0E07  2E18               	goto	l2739
  8330     0E08                     u3340:
  8331     0E08                     l2731:
  8332     0E08  0A38               	incf	___fladd@bexp,w
  8333     0E09  1D03               	btfss	3,2
  8334     0E0A  2E0C               	goto	u3351
  8335     0E0B  2E0D               	goto	u3350
  8336     0E0C                     u3351:
  8337     0E0C  2E15               	goto	l2735
  8338     0E0D                     u3350:
  8339     0E0D                     l2733:
  8340     0E0D  3000               	movlw	0
  8341     0E0E  00A9               	movwf	___fladd@b+3
  8342     0E0F  3000               	movlw	0
  8343     0E10  00A8               	movwf	___fladd@b+2
  8344     0E11  3000               	movlw	0
  8345     0E12  00A7               	movwf	___fladd@b+1
  8346     0E13  3000               	movlw	0
  8347     0E14  00A6               	movwf	___fladd@b
  8348     0E15                     l2735:
  8349     0E15  17A8               	bsf	___fladd@b+2,7
  8350     0E16                     l2737:
  8351     0E16  01A9               	clrf	___fladd@b+3
  8352     0E17  2E20               	goto	l2741
  8353     0E18                     l2739:
  8354     0E18  3000               	movlw	0
  8355     0E19  00A9               	movwf	___fladd@b+3
  8356     0E1A  3000               	movlw	0
  8357     0E1B  00A8               	movwf	___fladd@b+2
  8358     0E1C  3000               	movlw	0
  8359     0E1D  00A7               	movwf	___fladd@b+1
  8360     0E1E  3000               	movlw	0
  8361     0E1F  00A6               	movwf	___fladd@b
  8362     0E20                     l2741:
  8363     0E20  082D               	movf	___fladd@a+3,w
  8364     0E21  3980               	andlw	128
  8365     0E22  00B7               	movwf	___fladd@aexp
  8366     0E23                     l2743:
  8367     0E23  0837               	movf	___fladd@aexp,w
  8368     0E24  0636               	xorwf	___fladd@signs,w
  8369     0E25  1903               	skipnz
  8370     0E26  2E28               	goto	u3361
  8371     0E27  2E29               	goto	u3360
  8372     0E28                     u3361:
  8373     0E28  2E2A               	goto	l2747
  8374     0E29                     u3360:
  8375     0E29                     l2745:
  8376     0E29  1736               	bsf	___fladd@signs,6
  8377     0E2A                     l2747:
  8378     0E2A  352D               	lslf	___fladd@a+3,w
  8379     0E2B  00B7               	movwf	___fladd@aexp
  8380     0E2C                     l2749:
  8381     0E2C  1FAC               	btfss	___fladd@a+2,7
  8382     0E2D  2E2F               	goto	u3371
  8383     0E2E  2E30               	goto	u3370
  8384     0E2F                     u3371:
  8385     0E2F  2E31               	goto	l2753
  8386     0E30                     u3370:
  8387     0E30                     l2751:
  8388     0E30  1437               	bsf	___fladd@aexp,0
  8389     0E31                     l2753:
  8390     0E31  0837               	movf	___fladd@aexp,w
  8391     0E32  1903               	btfsc	3,2
  8392     0E33  2E35               	goto	u3381
  8393     0E34  2E36               	goto	u3380
  8394     0E35                     u3381:
  8395     0E35  2E46               	goto	l2763
  8396     0E36                     u3380:
  8397     0E36                     l2755:
  8398     0E36  0A37               	incf	___fladd@aexp,w
  8399     0E37  1D03               	btfss	3,2
  8400     0E38  2E3A               	goto	u3391
  8401     0E39  2E3B               	goto	u3390
  8402     0E3A                     u3391:
  8403     0E3A  2E43               	goto	l2759
  8404     0E3B                     u3390:
  8405     0E3B                     l2757:
  8406     0E3B  3000               	movlw	0
  8407     0E3C  00AD               	movwf	___fladd@a+3
  8408     0E3D  3000               	movlw	0
  8409     0E3E  00AC               	movwf	___fladd@a+2
  8410     0E3F  3000               	movlw	0
  8411     0E40  00AB               	movwf	___fladd@a+1
  8412     0E41  3000               	movlw	0
  8413     0E42  00AA               	movwf	___fladd@a
  8414     0E43                     l2759:
  8415     0E43  17AC               	bsf	___fladd@a+2,7
  8416     0E44                     l2761:
  8417     0E44  01AD               	clrf	___fladd@a+3
  8418     0E45  2E4E               	goto	l646
  8419     0E46                     l2763:
  8420     0E46  3000               	movlw	0
  8421     0E47  00AD               	movwf	___fladd@a+3
  8422     0E48  3000               	movlw	0
  8423     0E49  00AC               	movwf	___fladd@a+2
  8424     0E4A  3000               	movlw	0
  8425     0E4B  00AB               	movwf	___fladd@a+1
  8426     0E4C  3000               	movlw	0
  8427     0E4D  00AA               	movwf	___fladd@a
  8428     0E4E                     l646:
  8429     0E4E  0838               	movf	___fladd@bexp,w
  8430     0E4F  0237               	subwf	___fladd@aexp,w
  8431     0E50  1803               	skipnc
  8432     0E51  2E53               	goto	u3401
  8433     0E52  2E54               	goto	u3400
  8434     0E53                     u3401:
  8435     0E53  2E7A               	goto	l2799
  8436     0E54                     u3400:
  8437     0E54                     l2765:
  8438     0E54  1F36               	btfss	___fladd@signs,6
  8439     0E55  2E57               	goto	u3411
  8440     0E56  2E58               	goto	u3410
  8441     0E57                     u3411:
  8442     0E57  2E5C               	goto	l2769
  8443     0E58                     u3410:
  8444     0E58                     l2767:
  8445     0E58  3080               	movlw	128
  8446     0E59  00AE               	movwf	??___fladd
  8447     0E5A  082E               	movf	??___fladd,w
  8448     0E5B  06B6               	xorwf	___fladd@signs,f
  8449     0E5C                     l2769:
  8450     0E5C  0838               	movf	___fladd@bexp,w
  8451     0E5D  00B9               	movwf	___fladd@grs
  8452     0E5E                     l2771:
  8453     0E5E  0837               	movf	___fladd@aexp,w
  8454     0E5F  00B8               	movwf	___fladd@bexp
  8455     0E60                     l2773:
  8456     0E60  0839               	movf	___fladd@grs,w
  8457     0E61  00B7               	movwf	___fladd@aexp
  8458     0E62                     l2775:
  8459     0E62  0826               	movf	___fladd@b,w
  8460     0E63  00B9               	movwf	___fladd@grs
  8461     0E64                     l2777:
  8462     0E64  082A               	movf	___fladd@a,w
  8463     0E65  00A6               	movwf	___fladd@b
  8464     0E66                     l2779:
  8465     0E66  0839               	movf	___fladd@grs,w
  8466     0E67  00AA               	movwf	___fladd@a
  8467     0E68                     l2781:
  8468     0E68  0827               	movf	___fladd@b+1,w
  8469     0E69  00B9               	movwf	___fladd@grs
  8470     0E6A                     l2783:
  8471     0E6A  082B               	movf	___fladd@a+1,w
  8472     0E6B  00A7               	movwf	___fladd@b+1
  8473     0E6C                     l2785:
  8474     0E6C  0839               	movf	___fladd@grs,w
  8475     0E6D  00AB               	movwf	___fladd@a+1
  8476     0E6E                     l2787:
  8477     0E6E  0828               	movf	___fladd@b+2,w
  8478     0E6F  00B9               	movwf	___fladd@grs
  8479     0E70                     l2789:
  8480     0E70  082C               	movf	___fladd@a+2,w
  8481     0E71  00A8               	movwf	___fladd@b+2
  8482     0E72                     l2791:
  8483     0E72  0839               	movf	___fladd@grs,w
  8484     0E73  00AC               	movwf	___fladd@a+2
  8485     0E74                     l2793:
  8486     0E74  0829               	movf	___fladd@b+3,w
  8487     0E75  00B9               	movwf	___fladd@grs
  8488     0E76                     l2795:
  8489     0E76  082D               	movf	___fladd@a+3,w
  8490     0E77  00A9               	movwf	___fladd@b+3
  8491     0E78                     l2797:
  8492     0E78  0839               	movf	___fladd@grs,w
  8493     0E79  00AD               	movwf	___fladd@a+3
  8494     0E7A                     l2799:
  8495     0E7A  01B9               	clrf	___fladd@grs
  8496     0E7B                     l2801:
  8497     0E7B  0837               	movf	___fladd@aexp,w
  8498     0E7C  00AE               	movwf	??___fladd
  8499     0E7D  01AF               	clrf	??___fladd+1
  8500     0E7E  082F               	movf	??___fladd+1,w
  8501     0E7F  00B1               	movwf	??___fladd+3
  8502     0E80  0838               	movf	___fladd@bexp,w
  8503     0E81  022E               	subwf	??___fladd,w
  8504     0E82  00B0               	movwf	??___fladd+2
  8505     0E83  1C03               	skipc
  8506     0E84  03B1               	decf	??___fladd+3,f
  8507     0E85  0831               	movf	??___fladd+3,w
  8508     0E86  3A80               	xorlw	128
  8509     0E87  00B2               	movwf	??___fladd+4
  8510     0E88  3080               	movlw	128
  8511     0E89  0232               	subwf	??___fladd+4,w
  8512     0E8A  1D03               	skipz
  8513     0E8B  2E8E               	goto	u3425
  8514     0E8C  301A               	movlw	26
  8515     0E8D  0230               	subwf	??___fladd+2,w
  8516     0E8E                     u3425:
  8517     0E8E  1C03               	skipc
  8518     0E8F  2E91               	goto	u3421
  8519     0E90  2E92               	goto	u3420
  8520     0E91                     u3421:
  8521     0E91  2EC4               	goto	l2817
  8522     0E92                     u3420:
  8523     0E92                     l2803:
  8524     0E92  0020               	movlb	0	; select bank0
  8525     0E93  0829               	movf	___fladd@b+3,w
  8526     0E94  0428               	iorwf	___fladd@b+2,w
  8527     0E95  0427               	iorwf	___fladd@b+1,w
  8528     0E96  0426               	iorwf	___fladd@b,w
  8529     0E97  1D03               	skipz
  8530     0E98  2E9A               	goto	u3431
  8531     0E99  2E9C               	goto	u3430
  8532     0E9A                     u3431:
  8533     0E9A  3001               	movlw	1
  8534     0E9B  2E9D               	goto	u3440
  8535     0E9C                     u3430:
  8536     0E9C  3000               	movlw	0
  8537     0E9D                     u3440:
  8538     0E9D  00B9               	movwf	___fladd@grs
  8539     0E9E  3000               	movlw	0
  8540     0E9F  00A9               	movwf	___fladd@b+3
  8541     0EA0  3000               	movlw	0
  8542     0EA1  00A8               	movwf	___fladd@b+2
  8543     0EA2  3000               	movlw	0
  8544     0EA3  00A7               	movwf	___fladd@b+1
  8545     0EA4  3000               	movlw	0
  8546     0EA5  00A6               	movwf	___fladd@b
  8547     0EA6  0837               	movf	___fladd@aexp,w
  8548     0EA7  00B8               	movwf	___fladd@bexp
  8549     0EA8  2ECB               	goto	l650
  8550     0EA9                     l652:
  8551     0EA9  1C39               	btfss	___fladd@grs,0
  8552     0EAA  2EAC               	goto	u3451
  8553     0EAB  2EAD               	goto	u3450
  8554     0EAC                     u3451:
  8555     0EAC  2EB1               	goto	l2807
  8556     0EAD                     u3450:
  8557     0EAD                     l2805:
  8558     0EAD  3639               	lsrf	___fladd@grs,w
  8559     0EAE  3801               	iorlw	1
  8560     0EAF  00B9               	movwf	___fladd@grs
  8561     0EB0  2EB3               	goto	l2809
  8562     0EB1                     l2807:
  8563     0EB1  1003               	clrc
  8564     0EB2  0CB9               	rrf	___fladd@grs,f
  8565     0EB3                     l2809:
  8566     0EB3  1C26               	btfss	___fladd@b,0
  8567     0EB4  2EB6               	goto	u3461
  8568     0EB5  2EB7               	goto	u3460
  8569     0EB6                     u3461:
  8570     0EB6  2EB8               	goto	l2813
  8571     0EB7                     u3460:
  8572     0EB7                     l2811:
  8573     0EB7  17B9               	bsf	___fladd@grs,7
  8574     0EB8                     l2813:
  8575     0EB8  3001               	movlw	1
  8576     0EB9  00AE               	movwf	??___fladd
  8577     0EBA                     u3475:
  8578     0EBA  37A9               	asrf	___fladd@b+3,f
  8579     0EBB  0CA8               	rrf	___fladd@b+2,f
  8580     0EBC  0CA7               	rrf	___fladd@b+1,f
  8581     0EBD  0CA6               	rrf	___fladd@b,f
  8582     0EBE  0BAE               	decfsz	??___fladd& (0+127),f
  8583     0EBF  2EBA               	goto	u3475
  8584     0EC0                     l2815:
  8585     0EC0  3001               	movlw	1
  8586     0EC1  00AE               	movwf	??___fladd
  8587     0EC2  082E               	movf	??___fladd,w
  8588     0EC3  07B8               	addwf	___fladd@bexp,f
  8589     0EC4                     l2817:
  8590     0EC4  0020               	movlb	0	; select bank0
  8591     0EC5  0837               	movf	___fladd@aexp,w
  8592     0EC6  0238               	subwf	___fladd@bexp,w
  8593     0EC7  1C03               	skipc
  8594     0EC8  2ECA               	goto	u3481
  8595     0EC9  2ECB               	goto	u3480
  8596     0ECA                     u3481:
  8597     0ECA  2EA9               	goto	l652
  8598     0ECB                     u3480:
  8599     0ECB                     l650:
  8600     0ECB  1B36               	btfsc	___fladd@signs,6
  8601     0ECC  2ECE               	goto	u3491
  8602     0ECD  2ECF               	goto	u3490
  8603     0ECE                     u3491:
  8604     0ECE  2F05               	goto	l2843
  8605     0ECF                     u3490:
  8606     0ECF                     l2819:
  8607     0ECF  0838               	movf	___fladd@bexp,w
  8608     0ED0  1D03               	btfss	3,2
  8609     0ED1  2ED3               	goto	u3501
  8610     0ED2  2ED4               	goto	u3500
  8611     0ED3                     u3501:
  8612     0ED3  2EDD               	goto	l2825
  8613     0ED4                     u3500:
  8614     0ED4                     l2821:
  8615     0ED4  3000               	movlw	0
  8616     0ED5  00A9               	movwf	?___fladd+3
  8617     0ED6  3000               	movlw	0
  8618     0ED7  00A8               	movwf	?___fladd+2
  8619     0ED8  3000               	movlw	0
  8620     0ED9  00A7               	movwf	?___fladd+1
  8621     0EDA  3000               	movlw	0
  8622     0EDB  00A6               	movwf	?___fladd
  8623     0EDC  2FFF               	goto	l659
  8624     0EDD                     l2825:
  8625     0EDD  082A               	movf	___fladd@a,w
  8626     0EDE  07A6               	addwf	___fladd@b,f
  8627     0EDF  082B               	movf	___fladd@a+1,w
  8628     0EE0  3DA7               	addwfc	___fladd@b+1,f
  8629     0EE1  082C               	movf	___fladd@a+2,w
  8630     0EE2  3DA8               	addwfc	___fladd@b+2,f
  8631     0EE3  082D               	movf	___fladd@a+3,w
  8632     0EE4  3DA9               	addwfc	___fladd@b+3,f
  8633     0EE5                     l2827:
  8634     0EE5  1C29               	btfss	___fladd@b+3,0
  8635     0EE6  2EE8               	goto	u3511
  8636     0EE7  2EE9               	goto	u3510
  8637     0EE8                     u3511:
  8638     0EE8  2F91               	goto	l2877
  8639     0EE9                     u3510:
  8640     0EE9                     l2829:
  8641     0EE9  1C39               	btfss	___fladd@grs,0
  8642     0EEA  2EEC               	goto	u3521
  8643     0EEB  2EED               	goto	u3520
  8644     0EEC                     u3521:
  8645     0EEC  2EF1               	goto	l2833
  8646     0EED                     u3520:
  8647     0EED                     l2831:
  8648     0EED  3639               	lsrf	___fladd@grs,w
  8649     0EEE  3801               	iorlw	1
  8650     0EEF  00B9               	movwf	___fladd@grs
  8651     0EF0  2EF3               	goto	l2835
  8652     0EF1                     l2833:
  8653     0EF1  1003               	clrc
  8654     0EF2  0CB9               	rrf	___fladd@grs,f
  8655     0EF3                     l2835:
  8656     0EF3  1C26               	btfss	___fladd@b,0
  8657     0EF4  2EF6               	goto	u3531
  8658     0EF5  2EF7               	goto	u3530
  8659     0EF6                     u3531:
  8660     0EF6  2EF8               	goto	l2839
  8661     0EF7                     u3530:
  8662     0EF7                     l2837:
  8663     0EF7  17B9               	bsf	___fladd@grs,7
  8664     0EF8                     l2839:
  8665     0EF8  3001               	movlw	1
  8666     0EF9  00AE               	movwf	??___fladd
  8667     0EFA                     u3545:
  8668     0EFA  37A9               	asrf	___fladd@b+3,f
  8669     0EFB  0CA8               	rrf	___fladd@b+2,f
  8670     0EFC  0CA7               	rrf	___fladd@b+1,f
  8671     0EFD  0CA6               	rrf	___fladd@b,f
  8672     0EFE  0BAE               	decfsz	??___fladd& (0+127),f
  8673     0EFF  2EFA               	goto	u3545
  8674     0F00                     l2841:
  8675     0F00  3001               	movlw	1
  8676     0F01  00AE               	movwf	??___fladd
  8677     0F02  082E               	movf	??___fladd,w
  8678     0F03  07B8               	addwf	___fladd@bexp,f
  8679     0F04  2F91               	goto	l2877
  8680     0F05                     l2843:
  8681     0F05  0829               	movf	___fladd@b+3,w
  8682     0F06  3A80               	xorlw	128
  8683     0F07  00AE               	movwf	??___fladd
  8684     0F08  082D               	movf	___fladd@a+3,w
  8685     0F09  3A80               	xorlw	128
  8686     0F0A  022E               	subwf	??___fladd,w
  8687     0F0B  1D03               	skipz
  8688     0F0C  2F17               	goto	u3553
  8689     0F0D  082C               	movf	___fladd@a+2,w
  8690     0F0E  0228               	subwf	___fladd@b+2,w
  8691     0F0F  1D03               	skipz
  8692     0F10  2F17               	goto	u3553
  8693     0F11  082B               	movf	___fladd@a+1,w
  8694     0F12  0227               	subwf	___fladd@b+1,w
  8695     0F13  1D03               	skipz
  8696     0F14  2F17               	goto	u3553
  8697     0F15  082A               	movf	___fladd@a,w
  8698     0F16  0226               	subwf	___fladd@b,w
  8699     0F17                     u3553:
  8700     0F17  1803               	skipnc
  8701     0F18  2F1A               	goto	u3551
  8702     0F19  2F1B               	goto	u3550
  8703     0F1A                     u3551:
  8704     0F1A  2F53               	goto	l2853
  8705     0F1B                     u3550:
  8706     0F1B                     l2845:
  8707     0F1B  30FF               	movlw	255
  8708     0F1C  00AE               	movwf	??___fladd
  8709     0F1D  30FF               	movlw	255
  8710     0F1E  00AF               	movwf	??___fladd+1
  8711     0F1F  30FF               	movlw	255
  8712     0F20  00B0               	movwf	??___fladd+2
  8713     0F21  30FF               	movlw	255
  8714     0F22  00B1               	movwf	??___fladd+3
  8715     0F23  0826               	movf	___fladd@b,w
  8716     0F24  022A               	subwf	___fladd@a,w
  8717     0F25  00B2               	movwf	??___fladd+4
  8718     0F26  0827               	movf	___fladd@b+1,w
  8719     0F27  3B2B               	subwfb	___fladd@a+1,w
  8720     0F28  00B3               	movwf	??___fladd+5
  8721     0F29  0828               	movf	___fladd@b+2,w
  8722     0F2A  3B2C               	subwfb	___fladd@a+2,w
  8723     0F2B  00B4               	movwf	??___fladd+6
  8724     0F2C  0829               	movf	___fladd@b+3,w
  8725     0F2D  3B2D               	subwfb	___fladd@a+3,w
  8726     0F2E  00B5               	movwf	??___fladd+7
  8727     0F2F  0832               	movf	??___fladd+4,w
  8728     0F30  07AE               	addwf	??___fladd,f
  8729     0F31  0833               	movf	??___fladd+5,w
  8730     0F32  3DAF               	addwfc	??___fladd+1,f
  8731     0F33  0834               	movf	??___fladd+6,w
  8732     0F34  3DB0               	addwfc	??___fladd+2,f
  8733     0F35  0835               	movf	??___fladd+7,w
  8734     0F36  3DB1               	addwfc	??___fladd+3,f
  8735     0F37  0831               	movf	??___fladd+3,w
  8736     0F38  00A9               	movwf	___fladd@b+3
  8737     0F39  0830               	movf	??___fladd+2,w
  8738     0F3A  00A8               	movwf	___fladd@b+2
  8739     0F3B  082F               	movf	??___fladd+1,w
  8740     0F3C  00A7               	movwf	___fladd@b+1
  8741     0F3D  082E               	movf	??___fladd,w
  8742     0F3E  00A6               	movwf	___fladd@b
  8743     0F3F                     l2847:
  8744     0F3F  3080               	movlw	128
  8745     0F40  00AE               	movwf	??___fladd
  8746     0F41  082E               	movf	??___fladd,w
  8747     0F42  06B6               	xorwf	___fladd@signs,f
  8748     0F43  09B9               	comf	___fladd@grs,f
  8749     0F44  0AB9               	incf	___fladd@grs,f
  8750     0F45                     l2849:
  8751     0F45  0839               	movf	___fladd@grs,w
  8752     0F46  1D03               	btfss	3,2
  8753     0F47  2F49               	goto	u3561
  8754     0F48  2F4A               	goto	u3560
  8755     0F49                     u3561:
  8756     0F49  2F5B               	goto	l667
  8757     0F4A                     u3560:
  8758     0F4A                     l2851:
  8759     0F4A  3001               	movlw	1
  8760     0F4B  07A6               	addwf	___fladd@b,f
  8761     0F4C  3000               	movlw	0
  8762     0F4D  3DA7               	addwfc	___fladd@b+1,f
  8763     0F4E  3000               	movlw	0
  8764     0F4F  3DA8               	addwfc	___fladd@b+2,f
  8765     0F50  3000               	movlw	0
  8766     0F51  3DA9               	addwfc	___fladd@b+3,f
  8767     0F52  2F5B               	goto	l667
  8768     0F53                     l2853:
  8769     0F53  082A               	movf	___fladd@a,w
  8770     0F54  02A6               	subwf	___fladd@b,f
  8771     0F55  082B               	movf	___fladd@a+1,w
  8772     0F56  3BA7               	subwfb	___fladd@b+1,f
  8773     0F57  082C               	movf	___fladd@a+2,w
  8774     0F58  3BA8               	subwfb	___fladd@b+2,f
  8775     0F59  082D               	movf	___fladd@a+3,w
  8776     0F5A  3BA9               	subwfb	___fladd@b+3,f
  8777     0F5B                     l667:
  8778     0F5B  0829               	movf	___fladd@b+3,w
  8779     0F5C  0428               	iorwf	___fladd@b+2,w
  8780     0F5D  0427               	iorwf	___fladd@b+1,w
  8781     0F5E  0426               	iorwf	___fladd@b,w
  8782     0F5F  1D03               	skipz
  8783     0F60  2F62               	goto	u3571
  8784     0F61  2F63               	goto	u3570
  8785     0F62                     u3571:
  8786     0F62  2F8D               	goto	l2875
  8787     0F63                     u3570:
  8788     0F63                     l2855:
  8789     0F63  0839               	movf	___fladd@grs,w
  8790     0F64  1D03               	btfss	3,2
  8791     0F65  2F67               	goto	u3581
  8792     0F66  2F68               	goto	u3580
  8793     0F67                     u3581:
  8794     0F67  2F8D               	goto	l2875
  8795     0F68                     u3580:
  8796     0F68                     l2857:
  8797     0F68  3000               	movlw	0
  8798     0F69  00A9               	movwf	?___fladd+3
  8799     0F6A  3000               	movlw	0
  8800     0F6B  00A8               	movwf	?___fladd+2
  8801     0F6C  3000               	movlw	0
  8802     0F6D  00A7               	movwf	?___fladd+1
  8803     0F6E  3000               	movlw	0
  8804     0F6F  00A6               	movwf	?___fladd
  8805     0F70  2FFF               	goto	l659
  8806     0F71                     l2861:
  8807     0F71  3001               	movlw	1
  8808     0F72                     u3595:
  8809     0F72  35A6               	lslf	___fladd@b,f
  8810     0F73  0DA7               	rlf	___fladd@b+1,f
  8811     0F74  0DA8               	rlf	___fladd@b+2,f
  8812     0F75  0DA9               	rlf	___fladd@b+3,f
  8813     0F76  0B89               	decfsz	9,f
  8814     0F77  2F72               	goto	u3595
  8815     0F78                     l2863:
  8816     0F78  1FB9               	btfss	___fladd@grs,7
  8817     0F79  2F7B               	goto	u3601
  8818     0F7A  2F7C               	goto	u3600
  8819     0F7B                     u3601:
  8820     0F7B  2F7D               	goto	l671
  8821     0F7C                     u3600:
  8822     0F7C                     l2865:
  8823     0F7C  1426               	bsf	___fladd@b,0
  8824     0F7D                     l671:
  8825     0F7D  1C39               	btfss	___fladd@grs,0
  8826     0F7E  2F80               	goto	u3611
  8827     0F7F  2F81               	goto	u3610
  8828     0F80                     u3611:
  8829     0F80  2F84               	goto	l2869
  8830     0F81                     u3610:
  8831     0F81                     l2867:
  8832     0F81  1403               	setc
  8833     0F82  0DB9               	rlf	___fladd@grs,f
  8834     0F83  2F86               	goto	l2871
  8835     0F84                     l2869:
  8836     0F84  1003               	clrc
  8837     0F85  0DB9               	rlf	___fladd@grs,f
  8838     0F86                     l2871:
  8839     0F86  0838               	movf	___fladd@bexp,w
  8840     0F87  1903               	btfsc	3,2
  8841     0F88  2F8A               	goto	u3621
  8842     0F89  2F8B               	goto	u3620
  8843     0F8A                     u3621:
  8844     0F8A  2F8D               	goto	l2875
  8845     0F8B                     u3620:
  8846     0F8B                     l2873:
  8847     0F8B  3001               	movlw	1
  8848     0F8C  02B8               	subwf	___fladd@bexp,f
  8849     0F8D                     l2875:
  8850     0F8D  1FA8               	btfss	___fladd@b+2,7
  8851     0F8E  2F90               	goto	u3631
  8852     0F8F  2F91               	goto	u3630
  8853     0F90                     u3631:
  8854     0F90  2F71               	goto	l2861
  8855     0F91                     u3630:
  8856     0F91                     l2877:
  8857     0F91  01B7               	clrf	___fladd@aexp
  8858     0F92                     l2879:
  8859     0F92  1FB9               	btfss	___fladd@grs,7
  8860     0F93  2F95               	goto	u3641
  8861     0F94  2F96               	goto	u3640
  8862     0F95                     u3641:
  8863     0F95  2FA4               	goto	l2887
  8864     0F96                     u3640:
  8865     0F96                     l2881:
  8866     0F96  0839               	movf	___fladd@grs,w
  8867     0F97  397F               	andlw	127
  8868     0F98  1903               	btfsc	3,2
  8869     0F99  2F9B               	goto	u3651
  8870     0F9A  2F9C               	goto	u3650
  8871     0F9B                     u3651:
  8872     0F9B  2F9F               	goto	l677
  8873     0F9C                     u3650:
  8874     0F9C                     l2883:
  8875     0F9C  01B7               	clrf	___fladd@aexp
  8876     0F9D  0AB7               	incf	___fladd@aexp,f
  8877     0F9E  2FA4               	goto	l2887
  8878     0F9F                     l677:
  8879     0F9F  1C26               	btfss	___fladd@b,0
  8880     0FA0  2FA2               	goto	u3661
  8881     0FA1  2FA3               	goto	u3660
  8882     0FA2                     u3661:
  8883     0FA2  2FA4               	goto	l2887
  8884     0FA3                     u3660:
  8885     0FA3  2F9C               	goto	l2883
  8886     0FA4                     l2887:
  8887     0FA4  0837               	movf	___fladd@aexp,w
  8888     0FA5  1903               	btfsc	3,2
  8889     0FA6  2FA8               	goto	u3671
  8890     0FA7  2FA9               	goto	u3670
  8891     0FA8                     u3671:
  8892     0FA8  2FD6               	goto	l680
  8893     0FA9                     u3670:
  8894     0FA9                     l2889:
  8895     0FA9  3001               	movlw	1
  8896     0FAA  07A6               	addwf	___fladd@b,f
  8897     0FAB  3000               	movlw	0
  8898     0FAC  3DA7               	addwfc	___fladd@b+1,f
  8899     0FAD  3000               	movlw	0
  8900     0FAE  3DA8               	addwfc	___fladd@b+2,f
  8901     0FAF  3000               	movlw	0
  8902     0FB0  3DA9               	addwfc	___fladd@b+3,f
  8903     0FB1                     l2891:
  8904     0FB1  1C29               	btfss	___fladd@b+3,0
  8905     0FB2  2FB4               	goto	u3681
  8906     0FB3  2FB5               	goto	u3680
  8907     0FB4                     u3681:
  8908     0FB4  2FD6               	goto	l680
  8909     0FB5                     u3680:
  8910     0FB5                     l2893:
  8911     0FB5  0826               	movf	___fladd@b,w
  8912     0FB6  00AE               	movwf	??___fladd
  8913     0FB7  0827               	movf	___fladd@b+1,w
  8914     0FB8  00AF               	movwf	??___fladd+1
  8915     0FB9  0828               	movf	___fladd@b+2,w
  8916     0FBA  00B0               	movwf	??___fladd+2
  8917     0FBB  0829               	movf	___fladd@b+3,w
  8918     0FBC  00B1               	movwf	??___fladd+3
  8919     0FBD  3001               	movlw	1
  8920     0FBE  00B2               	movwf	??___fladd+4
  8921     0FBF                     u3695:
  8922     0FBF  37B1               	asrf	??___fladd+3,f
  8923     0FC0  0CB0               	rrf	??___fladd+2,f
  8924     0FC1  0CAF               	rrf	??___fladd+1,f
  8925     0FC2  0CAE               	rrf	??___fladd,f
  8926     0FC3                     u3690:
  8927     0FC3  0BB2               	decfsz	??___fladd+4,f
  8928     0FC4  2FBF               	goto	u3695
  8929     0FC5  0831               	movf	??___fladd+3,w
  8930     0FC6  00A9               	movwf	___fladd@b+3
  8931     0FC7  0830               	movf	??___fladd+2,w
  8932     0FC8  00A8               	movwf	___fladd@b+2
  8933     0FC9  082F               	movf	??___fladd+1,w
  8934     0FCA  00A7               	movwf	___fladd@b+1
  8935     0FCB  082E               	movf	??___fladd,w
  8936     0FCC  00A6               	movwf	___fladd@b
  8937     0FCD  0A38               	incf	___fladd@bexp,w
  8938     0FCE  1903               	btfsc	3,2
  8939     0FCF  2FD1               	goto	u3701
  8940     0FD0  2FD2               	goto	u3700
  8941     0FD1                     u3701:
  8942     0FD1  2FD6               	goto	l680
  8943     0FD2                     u3700:
  8944     0FD2                     l2895:
  8945     0FD2  3001               	movlw	1
  8946     0FD3  00AE               	movwf	??___fladd
  8947     0FD4  082E               	movf	??___fladd,w
  8948     0FD5  07B8               	addwf	___fladd@bexp,f
  8949     0FD6                     l680:
  8950     0FD6  0A38               	incf	___fladd@bexp,w
  8951     0FD7  1903               	btfsc	3,2
  8952     0FD8  2FDA               	goto	u3711
  8953     0FD9  2FDB               	goto	u3710
  8954     0FDA                     u3711:
  8955     0FDA  2FE0               	goto	l2899
  8956     0FDB                     u3710:
  8957     0FDB                     l2897:
  8958     0FDB  0838               	movf	___fladd@bexp,w
  8959     0FDC  1D03               	btfss	3,2
  8960     0FDD  2FDF               	goto	u3721
  8961     0FDE  2FE0               	goto	u3720
  8962     0FDF                     u3721:
  8963     0FDF  2FEE               	goto	l2905
  8964     0FE0                     u3720:
  8965     0FE0                     l2899:
  8966     0FE0  3000               	movlw	0
  8967     0FE1  00A9               	movwf	___fladd@b+3
  8968     0FE2  3000               	movlw	0
  8969     0FE3  00A8               	movwf	___fladd@b+2
  8970     0FE4  3000               	movlw	0
  8971     0FE5  00A7               	movwf	___fladd@b+1
  8972     0FE6  3000               	movlw	0
  8973     0FE7  00A6               	movwf	___fladd@b
  8974     0FE8                     l2901:
  8975     0FE8  0838               	movf	___fladd@bexp,w
  8976     0FE9  1D03               	btfss	3,2
  8977     0FEA  2FEC               	goto	u3731
  8978     0FEB  2FED               	goto	u3730
  8979     0FEC                     u3731:
  8980     0FEC  2FEE               	goto	l2905
  8981     0FED                     u3730:
  8982     0FED                     l2903:
  8983     0FED  01B6               	clrf	___fladd@signs
  8984     0FEE                     l2905:
  8985     0FEE  1C38               	btfss	___fladd@bexp,0
  8986     0FEF  2FF1               	goto	u3741
  8987     0FF0  2FF2               	goto	u3740
  8988     0FF1                     u3741:
  8989     0FF1  2FF4               	goto	l2909
  8990     0FF2                     u3740:
  8991     0FF2                     l2907:
  8992     0FF2  17A8               	bsf	___fladd@b+2,7
  8993     0FF3  2FF8               	goto	l688
  8994     0FF4                     l2909:
  8995     0FF4  307F               	movlw	127
  8996     0FF5  00AE               	movwf	??___fladd
  8997     0FF6  082E               	movf	??___fladd,w
  8998     0FF7  05A8               	andwf	___fladd@b+2,f
  8999     0FF8                     l688:
  9000     0FF8  3638               	lsrf	___fladd@bexp,w
  9001     0FF9  00A9               	movwf	___fladd@b+3
  9002     0FFA                     l2911:
  9003     0FFA  1FB6               	btfss	___fladd@signs,7
  9004     0FFB  2FFD               	goto	u3751
  9005     0FFC  2FFE               	goto	u3750
  9006     0FFD                     u3751:
  9007     0FFD  2FFF               	goto	l689
  9008     0FFE                     u3750:
  9009     0FFE                     l2913:
  9010     0FFE  17A9               	bsf	___fladd@b+3,7
  9011     0FFF                     l689:
  9012     0FFF                     l659:
  9013     0FFF  0008               	return
  9014     1000                     __end_of___fladd:
  9015                           
  9016                           	psect	text24
  9017     035B                     __ptext24:	
  9018 ;; *************** function ___flmul *****************
  9019 ;; Defined at:
  9020 ;;		line 8 in file "C:\Program Files\Microchip\xc8\v2.40\pic\sources\c99\common\sprcmul.c"
  9021 ;; Parameters:    Size  Location     Type
  9022 ;;  b               4   26[BANK0 ] unsigned char 
  9023 ;;  a               4   30[BANK0 ] unsigned char 
  9024 ;; Auto vars:     Size  Location     Type
  9025 ;;  prod            4   46[BANK0 ] struct .
  9026 ;;  grs             4   40[BANK0 ] unsigned long 
  9027 ;;  temp            2   50[BANK0 ] struct .
  9028 ;;  bexp            1   45[BANK0 ] unsigned char 
  9029 ;;  aexp            1   44[BANK0 ] unsigned char 
  9030 ;;  sign            1   39[BANK0 ] unsigned char 
  9031 ;; Return value:  Size  Location     Type
  9032 ;;                  4   26[BANK0 ] unsigned char 
  9033 ;; Registers used:
  9034 ;;		wreg, status,2, status,0, pclath, cstack
  9035 ;; Tracked objects:
  9036 ;;		On entry : 0/0
  9037 ;;		On exit  : 0/0
  9038 ;;		Unchanged: 0/0
  9039 ;; Data sizes:     COMMON   BANK0   BANK1   BANK2   BANK3   BANK4   BANK5   BANK6   BANK7   BANK8   BANK9  BANK10  BANK1
      +1  BANK12
  9040 ;;      Params:         0       8       0       0       0       0       0       0       0       0       0       0       
      +0       0
  9041 ;;      Locals:         0      13       0       0       0       0       0       0       0       0       0       0       
      +0       0
  9042 ;;      Temps:          0       5       0       0       0       0       0       0       0       0       0       0       
      +0       0
  9043 ;;      Totals:         0      26       0       0       0       0       0       0       0       0       0       0       
      +0       0
  9044 ;;Total ram usage:       26 bytes
  9045 ;; Hardware stack levels used: 1
  9046 ;; Hardware stack levels required when called: 2
  9047 ;; This function calls:
  9048 ;;		__Umul8_16
  9049 ;; This function is called by:
  9050 ;;		_main
  9051 ;;		_ADC_Conv
  9052 ;;		_ADC_Afficher_Tension
  9053 ;;		_FREQ_Afficher
  9054 ;; This function uses a non-reentrant model
  9055 ;;
  9056                           
  9057     035B                     ___flmul:	
  9058                           ;psect for function ___flmul
  9059                           
  9060     035B                     l2223:	
  9061                           ;incstack = 0
  9062                           ; Regs used in ___flmul: [wreg+status,2+status,0+pclath+cstack]
  9063                           
  9064     035B  0020               	movlb	0	; select bank0
  9065     035C  083D               	movf	___flmul@b+3,w
  9066     035D  3980               	andlw	128
  9067     035E  00C7               	movwf	___flmul@sign
  9068     035F                     l2225:
  9069     035F  353D               	lslf	___flmul@b+3,w
  9070     0360  00CD               	movwf	___flmul@bexp
  9071     0361                     l2227:
  9072     0361  1FBC               	btfss	___flmul@b+2,7
  9073     0362  2B64               	goto	u2661
  9074     0363  2B65               	goto	u2660
  9075     0364                     u2661:
  9076     0364  2B66               	goto	l2231
  9077     0365                     u2660:
  9078     0365                     l2229:
  9079     0365  144D               	bsf	___flmul@bexp,0
  9080     0366                     l2231:
  9081     0366  084D               	movf	___flmul@bexp,w
  9082     0367  1903               	btfsc	3,2
  9083     0368  2B6A               	goto	u2671
  9084     0369  2B6B               	goto	u2670
  9085     036A                     u2671:
  9086     036A  2B7A               	goto	l2239
  9087     036B                     u2670:
  9088     036B                     l2233:
  9089     036B  0A4D               	incf	___flmul@bexp,w
  9090     036C  1D03               	btfss	3,2
  9091     036D  2B6F               	goto	u2681
  9092     036E  2B70               	goto	u2680
  9093     036F                     u2681:
  9094     036F  2B78               	goto	l2237
  9095     0370                     u2680:
  9096     0370                     l2235:
  9097     0370  3000               	movlw	0
  9098     0371  00BD               	movwf	___flmul@b+3
  9099     0372  3000               	movlw	0
  9100     0373  00BC               	movwf	___flmul@b+2
  9101     0374  3000               	movlw	0
  9102     0375  00BB               	movwf	___flmul@b+1
  9103     0376  3000               	movlw	0
  9104     0377  00BA               	movwf	___flmul@b
  9105     0378                     l2237:
  9106     0378  17BC               	bsf	___flmul@b+2,7
  9107     0379  2B82               	goto	l2241
  9108     037A                     l2239:
  9109     037A  3000               	movlw	0
  9110     037B  00BD               	movwf	___flmul@b+3
  9111     037C  3000               	movlw	0
  9112     037D  00BC               	movwf	___flmul@b+2
  9113     037E  3000               	movlw	0
  9114     037F  00BB               	movwf	___flmul@b+1
  9115     0380  3000               	movlw	0
  9116     0381  00BA               	movwf	___flmul@b
  9117     0382                     l2241:
  9118     0382  0841               	movf	___flmul@a+3,w
  9119     0383  3980               	andlw	128
  9120     0384  00C2               	movwf	??___flmul
  9121     0385  0842               	movf	??___flmul,w
  9122     0386  06C7               	xorwf	___flmul@sign,f
  9123     0387                     l2243:
  9124     0387  3541               	lslf	___flmul@a+3,w
  9125     0388  00CC               	movwf	___flmul@aexp
  9126     0389                     l2245:
  9127     0389  1FC0               	btfss	___flmul@a+2,7
  9128     038A  2B8C               	goto	u2691
  9129     038B  2B8D               	goto	u2690
  9130     038C                     u2691:
  9131     038C  2B8E               	goto	l2249
  9132     038D                     u2690:
  9133     038D                     l2247:
  9134     038D  144C               	bsf	___flmul@aexp,0
  9135     038E                     l2249:
  9136     038E  084C               	movf	___flmul@aexp,w
  9137     038F  1903               	btfsc	3,2
  9138     0390  2B92               	goto	u2701
  9139     0391  2B93               	goto	u2700
  9140     0392                     u2701:
  9141     0392  2BA2               	goto	l2257
  9142     0393                     u2700:
  9143     0393                     l2251:
  9144     0393  0A4C               	incf	___flmul@aexp,w
  9145     0394  1D03               	btfss	3,2
  9146     0395  2B97               	goto	u2711
  9147     0396  2B98               	goto	u2710
  9148     0397                     u2711:
  9149     0397  2BA0               	goto	l2255
  9150     0398                     u2710:
  9151     0398                     l2253:
  9152     0398  3000               	movlw	0
  9153     0399  00C1               	movwf	___flmul@a+3
  9154     039A  3000               	movlw	0
  9155     039B  00C0               	movwf	___flmul@a+2
  9156     039C  3000               	movlw	0
  9157     039D  00BF               	movwf	___flmul@a+1
  9158     039E  3000               	movlw	0
  9159     039F  00BE               	movwf	___flmul@a
  9160     03A0                     l2255:
  9161     03A0  17C0               	bsf	___flmul@a+2,7
  9162     03A1  2BAA               	goto	l2259
  9163     03A2                     l2257:
  9164     03A2  3000               	movlw	0
  9165     03A3  00C1               	movwf	___flmul@a+3
  9166     03A4  3000               	movlw	0
  9167     03A5  00C0               	movwf	___flmul@a+2
  9168     03A6  3000               	movlw	0
  9169     03A7  00BF               	movwf	___flmul@a+1
  9170     03A8  3000               	movlw	0
  9171     03A9  00BE               	movwf	___flmul@a
  9172     03AA                     l2259:
  9173     03AA  084C               	movf	___flmul@aexp,w
  9174     03AB  1903               	btfsc	3,2
  9175     03AC  2BAE               	goto	u2721
  9176     03AD  2BAF               	goto	u2720
  9177     03AE                     u2721:
  9178     03AE  2BB4               	goto	l2263
  9179     03AF                     u2720:
  9180     03AF                     l2261:
  9181     03AF  084D               	movf	___flmul@bexp,w
  9182     03B0  1D03               	btfss	3,2
  9183     03B1  2BB3               	goto	u2731
  9184     03B2  2BB4               	goto	u2730
  9185     03B3                     u2731:
  9186     03B3  2BBD               	goto	l2267
  9187     03B4                     u2730:
  9188     03B4                     l2263:
  9189     03B4  3000               	movlw	0
  9190     03B5  00BD               	movwf	?___flmul+3
  9191     03B6  3000               	movlw	0
  9192     03B7  00BC               	movwf	?___flmul+2
  9193     03B8  3000               	movlw	0
  9194     03B9  00BB               	movwf	?___flmul+1
  9195     03BA  3000               	movlw	0
  9196     03BB  00BA               	movwf	?___flmul
  9197     03BC  2D95               	goto	l742
  9198     03BD                     l2267:
  9199     03BD  083A               	movf	___flmul@b,w
  9200     03BE  00F1               	movwf	__Umul8_16@multiplicand
  9201     03BF  0840               	movf	___flmul@a+2,w
  9202     03C0  3196  2690  3183   	fcall	__Umul8_16
  9203     03C3  0872               	movf	?__Umul8_16+1,w
  9204     03C4  0020               	movlb	0	; select bank0
  9205     03C5  00D3               	movwf	___flmul@temp+1
  9206     03C6  0871               	movf	?__Umul8_16,w
  9207     03C7  00D2               	movwf	___flmul@temp
  9208     03C8                     l2269:
  9209     03C8  0852               	movf	___flmul@temp,w
  9210     03C9  00C2               	movwf	??___flmul
  9211     03CA  01C3               	clrf	??___flmul+1
  9212     03CB  01C4               	clrf	??___flmul+2
  9213     03CC  01C5               	clrf	??___flmul+3
  9214     03CD  0845               	movf	??___flmul+3,w
  9215     03CE  00CB               	movwf	___flmul@grs+3
  9216     03CF  0844               	movf	??___flmul+2,w
  9217     03D0  00CA               	movwf	___flmul@grs+2
  9218     03D1  0843               	movf	??___flmul+1,w
  9219     03D2  00C9               	movwf	___flmul@grs+1
  9220     03D3  0842               	movf	??___flmul,w
  9221     03D4  00C8               	movwf	___flmul@grs
  9222     03D5                     l2271:
  9223     03D5  0853               	movf	___flmul@temp+1,w
  9224     03D6  00C2               	movwf	??___flmul
  9225     03D7  01C3               	clrf	??___flmul+1
  9226     03D8  01C4               	clrf	??___flmul+2
  9227     03D9  01C5               	clrf	??___flmul+3
  9228     03DA  0845               	movf	??___flmul+3,w
  9229     03DB  00D1               	movwf	___flmul@prod+3
  9230     03DC  0844               	movf	??___flmul+2,w
  9231     03DD  00D0               	movwf	___flmul@prod+2
  9232     03DE  0843               	movf	??___flmul+1,w
  9233     03DF  00CF               	movwf	___flmul@prod+1
  9234     03E0  0842               	movf	??___flmul,w
  9235     03E1  00CE               	movwf	___flmul@prod
  9236     03E2  083B               	movf	___flmul@b+1,w
  9237     03E3  00F1               	movwf	__Umul8_16@multiplicand
  9238     03E4  083F               	movf	___flmul@a+1,w
  9239     03E5  3196  2690  3183   	fcall	__Umul8_16
  9240     03E8  0872               	movf	?__Umul8_16+1,w
  9241     03E9  0020               	movlb	0	; select bank0
  9242     03EA  00D3               	movwf	___flmul@temp+1
  9243     03EB  0871               	movf	?__Umul8_16,w
  9244     03EC  00D2               	movwf	___flmul@temp
  9245     03ED                     l2273:
  9246     03ED  0852               	movf	___flmul@temp,w
  9247     03EE  00C2               	movwf	??___flmul
  9248     03EF  01C3               	clrf	??___flmul+1
  9249     03F0  01C4               	clrf	??___flmul+2
  9250     03F1  01C5               	clrf	??___flmul+3
  9251     03F2  0842               	movf	??___flmul,w
  9252     03F3  07C8               	addwf	___flmul@grs,f
  9253     03F4  0843               	movf	??___flmul+1,w
  9254     03F5  3DC9               	addwfc	___flmul@grs+1,f
  9255     03F6  0844               	movf	??___flmul+2,w
  9256     03F7  3DCA               	addwfc	___flmul@grs+2,f
  9257     03F8  0845               	movf	??___flmul+3,w
  9258     03F9  3DCB               	addwfc	___flmul@grs+3,f
  9259     03FA                     l2275:
  9260     03FA  0853               	movf	___flmul@temp+1,w
  9261     03FB  00C2               	movwf	??___flmul
  9262     03FC  01C3               	clrf	??___flmul+1
  9263     03FD  01C4               	clrf	??___flmul+2
  9264     03FE  01C5               	clrf	??___flmul+3
  9265     03FF  0842               	movf	??___flmul,w
  9266     0400  07CE               	addwf	___flmul@prod,f
  9267     0401  0843               	movf	??___flmul+1,w
  9268     0402  3DCF               	addwfc	___flmul@prod+1,f
  9269     0403  0844               	movf	??___flmul+2,w
  9270     0404  3DD0               	addwfc	___flmul@prod+2,f
  9271     0405  0845               	movf	??___flmul+3,w
  9272     0406  3DD1               	addwfc	___flmul@prod+3,f
  9273     0407  083C               	movf	___flmul@b+2,w
  9274     0408  00F1               	movwf	__Umul8_16@multiplicand
  9275     0409  083E               	movf	___flmul@a,w
  9276     040A  3196  2690  3183   	fcall	__Umul8_16
  9277     040D  0872               	movf	?__Umul8_16+1,w
  9278     040E  0020               	movlb	0	; select bank0
  9279     040F  00D3               	movwf	___flmul@temp+1
  9280     0410  0871               	movf	?__Umul8_16,w
  9281     0411  00D2               	movwf	___flmul@temp
  9282     0412                     l2277:
  9283     0412  0852               	movf	___flmul@temp,w
  9284     0413  00C2               	movwf	??___flmul
  9285     0414  01C3               	clrf	??___flmul+1
  9286     0415  01C4               	clrf	??___flmul+2
  9287     0416  01C5               	clrf	??___flmul+3
  9288     0417  0842               	movf	??___flmul,w
  9289     0418  07C8               	addwf	___flmul@grs,f
  9290     0419  0843               	movf	??___flmul+1,w
  9291     041A  3DC9               	addwfc	___flmul@grs+1,f
  9292     041B  0844               	movf	??___flmul+2,w
  9293     041C  3DCA               	addwfc	___flmul@grs+2,f
  9294     041D  0845               	movf	??___flmul+3,w
  9295     041E  3DCB               	addwfc	___flmul@grs+3,f
  9296     041F                     l2279:
  9297     041F  0853               	movf	___flmul@temp+1,w
  9298     0420  00C2               	movwf	??___flmul
  9299     0421  01C3               	clrf	??___flmul+1
  9300     0422  01C4               	clrf	??___flmul+2
  9301     0423  01C5               	clrf	??___flmul+3
  9302     0424  0842               	movf	??___flmul,w
  9303     0425  07CE               	addwf	___flmul@prod,f
  9304     0426  0843               	movf	??___flmul+1,w
  9305     0427  3DCF               	addwfc	___flmul@prod+1,f
  9306     0428  0844               	movf	??___flmul+2,w
  9307     0429  3DD0               	addwfc	___flmul@prod+2,f
  9308     042A  0845               	movf	??___flmul+3,w
  9309     042B  3DD1               	addwfc	___flmul@prod+3,f
  9310     042C                     l2281:
  9311     042C  3008               	movlw	8
  9312     042D                     u2745:
  9313     042D  35C8               	lslf	___flmul@grs,f
  9314     042E  0DC9               	rlf	___flmul@grs+1,f
  9315     042F  0DCA               	rlf	___flmul@grs+2,f
  9316     0430  0DCB               	rlf	___flmul@grs+3,f
  9317     0431  0B89               	decfsz	9,f
  9318     0432  2C2D               	goto	u2745
  9319     0433                     l2283:
  9320     0433  083B               	movf	___flmul@b+1,w
  9321     0434  00F1               	movwf	__Umul8_16@multiplicand
  9322     0435  083E               	movf	___flmul@a,w
  9323     0436  3196  2690  3183   	fcall	__Umul8_16
  9324     0439  0872               	movf	?__Umul8_16+1,w
  9325     043A  0020               	movlb	0	; select bank0
  9326     043B  00D3               	movwf	___flmul@temp+1
  9327     043C  0871               	movf	?__Umul8_16,w
  9328     043D  00D2               	movwf	___flmul@temp
  9329     043E                     l2285:
  9330     043E  0852               	movf	___flmul@temp,w
  9331     043F  07C8               	addwf	___flmul@grs,f
  9332     0440  0853               	movf	___flmul@temp+1,w
  9333     0441  3DC9               	addwfc	___flmul@grs+1,f
  9334     0442  3000               	movlw	0
  9335     0443  3DCA               	addwfc	___flmul@grs+2,f
  9336     0444  3DCB               	addwfc	___flmul@grs+3,f
  9337     0445                     l2287:
  9338     0445  083A               	movf	___flmul@b,w
  9339     0446  00F1               	movwf	__Umul8_16@multiplicand
  9340     0447  083F               	movf	___flmul@a+1,w
  9341     0448  3196  2690  3183   	fcall	__Umul8_16
  9342     044B  0872               	movf	?__Umul8_16+1,w
  9343     044C  0020               	movlb	0	; select bank0
  9344     044D  00D3               	movwf	___flmul@temp+1
  9345     044E  0871               	movf	?__Umul8_16,w
  9346     044F  00D2               	movwf	___flmul@temp
  9347     0450                     l2289:
  9348     0450  0852               	movf	___flmul@temp,w
  9349     0451  07C8               	addwf	___flmul@grs,f
  9350     0452  0853               	movf	___flmul@temp+1,w
  9351     0453  3DC9               	addwfc	___flmul@grs+1,f
  9352     0454  3000               	movlw	0
  9353     0455  3DCA               	addwfc	___flmul@grs+2,f
  9354     0456  3DCB               	addwfc	___flmul@grs+3,f
  9355     0457                     l2291:
  9356     0457  3008               	movlw	8
  9357     0458                     u2755:
  9358     0458  35C8               	lslf	___flmul@grs,f
  9359     0459  0DC9               	rlf	___flmul@grs+1,f
  9360     045A  0DCA               	rlf	___flmul@grs+2,f
  9361     045B  0DCB               	rlf	___flmul@grs+3,f
  9362     045C  0B89               	decfsz	9,f
  9363     045D  2C58               	goto	u2755
  9364     045E  083A               	movf	___flmul@b,w
  9365     045F  00F1               	movwf	__Umul8_16@multiplicand
  9366     0460  083E               	movf	___flmul@a,w
  9367     0461  3196  2690  3183   	fcall	__Umul8_16
  9368     0464  0872               	movf	?__Umul8_16+1,w
  9369     0465  0020               	movlb	0	; select bank0
  9370     0466  00D3               	movwf	___flmul@temp+1
  9371     0467  0871               	movf	?__Umul8_16,w
  9372     0468  00D2               	movwf	___flmul@temp
  9373     0469                     l2293:
  9374     0469  0852               	movf	___flmul@temp,w
  9375     046A  07C8               	addwf	___flmul@grs,f
  9376     046B  0853               	movf	___flmul@temp+1,w
  9377     046C  3DC9               	addwfc	___flmul@grs+1,f
  9378     046D  3000               	movlw	0
  9379     046E  3DCA               	addwfc	___flmul@grs+2,f
  9380     046F  3DCB               	addwfc	___flmul@grs+3,f
  9381     0470                     l2295:
  9382     0470  083B               	movf	___flmul@b+1,w
  9383     0471  00F1               	movwf	__Umul8_16@multiplicand
  9384     0472  0840               	movf	___flmul@a+2,w
  9385     0473  3196  2690  3183   	fcall	__Umul8_16
  9386     0476  0872               	movf	?__Umul8_16+1,w
  9387     0477  0020               	movlb	0	; select bank0
  9388     0478  00D3               	movwf	___flmul@temp+1
  9389     0479  0871               	movf	?__Umul8_16,w
  9390     047A  00D2               	movwf	___flmul@temp
  9391     047B  0852               	movf	___flmul@temp,w
  9392     047C  07CE               	addwf	___flmul@prod,f
  9393     047D  0853               	movf	___flmul@temp+1,w
  9394     047E  3DCF               	addwfc	___flmul@prod+1,f
  9395     047F  3000               	movlw	0
  9396     0480  3DD0               	addwfc	___flmul@prod+2,f
  9397     0481  3DD1               	addwfc	___flmul@prod+3,f
  9398     0482                     l2297:
  9399     0482  083C               	movf	___flmul@b+2,w
  9400     0483  00F1               	movwf	__Umul8_16@multiplicand
  9401     0484  083F               	movf	___flmul@a+1,w
  9402     0485  3196  2690  3183   	fcall	__Umul8_16
  9403     0488  0872               	movf	?__Umul8_16+1,w
  9404     0489  0020               	movlb	0	; select bank0
  9405     048A  00D3               	movwf	___flmul@temp+1
  9406     048B  0871               	movf	?__Umul8_16,w
  9407     048C  00D2               	movwf	___flmul@temp
  9408     048D                     l2299:
  9409     048D  0852               	movf	___flmul@temp,w
  9410     048E  07CE               	addwf	___flmul@prod,f
  9411     048F  0853               	movf	___flmul@temp+1,w
  9412     0490  3DCF               	addwfc	___flmul@prod+1,f
  9413     0491  3000               	movlw	0
  9414     0492  3DD0               	addwfc	___flmul@prod+2,f
  9415     0493  3DD1               	addwfc	___flmul@prod+3,f
  9416     0494  083C               	movf	___flmul@b+2,w
  9417     0495  00F1               	movwf	__Umul8_16@multiplicand
  9418     0496  0840               	movf	___flmul@a+2,w
  9419     0497  3196  2690  3183   	fcall	__Umul8_16
  9420     049A  0872               	movf	?__Umul8_16+1,w
  9421     049B  0020               	movlb	0	; select bank0
  9422     049C  00D3               	movwf	___flmul@temp+1
  9423     049D  0871               	movf	?__Umul8_16,w
  9424     049E  00D2               	movwf	___flmul@temp
  9425     049F                     l2301:
  9426     049F  0852               	movf	___flmul@temp,w
  9427     04A0  00C2               	movwf	??___flmul
  9428     04A1  0853               	movf	___flmul@temp+1,w
  9429     04A2  00C3               	movwf	??___flmul+1
  9430     04A3  01C4               	clrf	??___flmul+2
  9431     04A4  01C5               	clrf	??___flmul+3
  9432     04A5  3008               	movlw	8
  9433     04A6                     u2765:
  9434     04A6  35C2               	lslf	??___flmul,f
  9435     04A7  0DC3               	rlf	??___flmul+1,f
  9436     04A8  0DC4               	rlf	??___flmul+2,f
  9437     04A9  0DC5               	rlf	??___flmul+3,f
  9438     04AA                     u2760:
  9439     04AA  0B89               	decfsz	9,f
  9440     04AB  2CA6               	goto	u2765
  9441     04AC  0842               	movf	??___flmul,w
  9442     04AD  07CE               	addwf	___flmul@prod,f
  9443     04AE  0843               	movf	??___flmul+1,w
  9444     04AF  3DCF               	addwfc	___flmul@prod+1,f
  9445     04B0  0844               	movf	??___flmul+2,w
  9446     04B1  3DD0               	addwfc	___flmul@prod+2,f
  9447     04B2  0845               	movf	??___flmul+3,w
  9448     04B3  3DD1               	addwfc	___flmul@prod+3,f
  9449     04B4                     l2303:
  9450     04B4  0848               	movf	___flmul@grs,w
  9451     04B5  00C2               	movwf	??___flmul
  9452     04B6  0849               	movf	___flmul@grs+1,w
  9453     04B7  00C3               	movwf	??___flmul+1
  9454     04B8  084A               	movf	___flmul@grs+2,w
  9455     04B9  00C4               	movwf	??___flmul+2
  9456     04BA  084B               	movf	___flmul@grs+3,w
  9457     04BB  00C5               	movwf	??___flmul+3
  9458     04BC  3018               	movlw	24
  9459     04BD                     u2775:
  9460     04BD  36C5               	lsrf	??___flmul+3,f
  9461     04BE  0CC4               	rrf	??___flmul+2,f
  9462     04BF  0CC3               	rrf	??___flmul+1,f
  9463     04C0  0CC2               	rrf	??___flmul,f
  9464     04C1                     u2770:
  9465     04C1  0B89               	decfsz	9,f
  9466     04C2  2CBD               	goto	u2775
  9467     04C3  0842               	movf	??___flmul,w
  9468     04C4  07CE               	addwf	___flmul@prod,f
  9469     04C5  0843               	movf	??___flmul+1,w
  9470     04C6  3DCF               	addwfc	___flmul@prod+1,f
  9471     04C7  0844               	movf	??___flmul+2,w
  9472     04C8  3DD0               	addwfc	___flmul@prod+2,f
  9473     04C9  0845               	movf	??___flmul+3,w
  9474     04CA  3DD1               	addwfc	___flmul@prod+3,f
  9475     04CB                     l2305:
  9476     04CB  3008               	movlw	8
  9477     04CC                     u2785:
  9478     04CC  35C8               	lslf	___flmul@grs,f
  9479     04CD  0DC9               	rlf	___flmul@grs+1,f
  9480     04CE  0DCA               	rlf	___flmul@grs+2,f
  9481     04CF  0DCB               	rlf	___flmul@grs+3,f
  9482     04D0  0B89               	decfsz	9,f
  9483     04D1  2CCC               	goto	u2785
  9484     04D2                     l2307:
  9485     04D2  084D               	movf	___flmul@bexp,w
  9486     04D3  074C               	addwf	___flmul@aexp,w
  9487     04D4  00C2               	movwf	??___flmul
  9488     04D5  01C3               	clrf	??___flmul+1
  9489     04D6  0DC3               	rlf	??___flmul+1,f
  9490     04D7  0842               	movf	??___flmul,w
  9491     04D8  3E82               	addlw	130
  9492     04D9  00D2               	movwf	___flmul@temp
  9493     04DA  30FF               	movlw	255
  9494     04DB  3D43               	addwfc	??___flmul+1,w
  9495     04DC  00D3               	movwf	___flmul@temp+1
  9496     04DD  2CF5               	goto	l2319
  9497     04DE                     l2309:
  9498     04DE  3001               	movlw	1
  9499     04DF                     u2795:
  9500     04DF  35CE               	lslf	___flmul@prod,f
  9501     04E0  0DCF               	rlf	___flmul@prod+1,f
  9502     04E1  0DD0               	rlf	___flmul@prod+2,f
  9503     04E2  0DD1               	rlf	___flmul@prod+3,f
  9504     04E3  0B89               	decfsz	9,f
  9505     04E4  2CDF               	goto	u2795
  9506     04E5                     l2311:
  9507     04E5  1FCB               	btfss	___flmul@grs+3,7
  9508     04E6  2CE8               	goto	u2801
  9509     04E7  2CE9               	goto	u2800
  9510     04E8                     u2801:
  9511     04E8  2CEA               	goto	l2315
  9512     04E9                     u2800:
  9513     04E9                     l2313:
  9514     04E9  144E               	bsf	___flmul@prod,0
  9515     04EA                     l2315:
  9516     04EA  3001               	movlw	1
  9517     04EB                     u2815:
  9518     04EB  35C8               	lslf	___flmul@grs,f
  9519     04EC  0DC9               	rlf	___flmul@grs+1,f
  9520     04ED  0DCA               	rlf	___flmul@grs+2,f
  9521     04EE  0DCB               	rlf	___flmul@grs+3,f
  9522     04EF  0B89               	decfsz	9,f
  9523     04F0  2CEB               	goto	u2815
  9524     04F1                     l2317:
  9525     04F1  30FF               	movlw	255
  9526     04F2  07D2               	addwf	___flmul@temp,f
  9527     04F3  30FF               	movlw	255
  9528     04F4  3DD3               	addwfc	___flmul@temp+1,f
  9529     04F5                     l2319:
  9530     04F5  1FD0               	btfss	___flmul@prod+2,7
  9531     04F6  2CF8               	goto	u2821
  9532     04F7  2CF9               	goto	u2820
  9533     04F8                     u2821:
  9534     04F8  2CDE               	goto	l2309
  9535     04F9                     u2820:
  9536     04F9                     l2321:
  9537     04F9  01CC               	clrf	___flmul@aexp
  9538     04FA                     l2323:
  9539     04FA  1FCB               	btfss	___flmul@grs+3,7
  9540     04FB  2CFD               	goto	u2831
  9541     04FC  2CFE               	goto	u2830
  9542     04FD                     u2831:
  9543     04FD  2D1A               	goto	l2331
  9544     04FE                     u2830:
  9545     04FE                     l2325:
  9546     04FE  30FF               	movlw	255
  9547     04FF  0548               	andwf	___flmul@grs,w
  9548     0500  00C2               	movwf	??___flmul
  9549     0501  30FF               	movlw	255
  9550     0502  0549               	andwf	___flmul@grs+1,w
  9551     0503  00C3               	movwf	??___flmul+1
  9552     0504  30FF               	movlw	255
  9553     0505  054A               	andwf	___flmul@grs+2,w
  9554     0506  00C4               	movwf	??___flmul+2
  9555     0507  307F               	movlw	127
  9556     0508  054B               	andwf	___flmul@grs+3,w
  9557     0509  00C5               	movwf	??___flmul+3
  9558     050A  0845               	movf	??___flmul+3,w
  9559     050B  0444               	iorwf	??___flmul+2,w
  9560     050C  0443               	iorwf	??___flmul+1,w
  9561     050D  0442               	iorwf	??___flmul,w
  9562     050E  1903               	skipnz
  9563     050F  2D11               	goto	u2841
  9564     0510  2D12               	goto	u2840
  9565     0511                     u2841:
  9566     0511  2D15               	goto	l748
  9567     0512                     u2840:
  9568     0512                     l2327:
  9569     0512  01CC               	clrf	___flmul@aexp
  9570     0513  0ACC               	incf	___flmul@aexp,f
  9571     0514  2D1A               	goto	l2331
  9572     0515                     l748:
  9573     0515  1C4E               	btfss	___flmul@prod,0
  9574     0516  2D18               	goto	u2851
  9575     0517  2D19               	goto	u2850
  9576     0518                     u2851:
  9577     0518  2D1A               	goto	l2331
  9578     0519                     u2850:
  9579     0519  2D12               	goto	l2327
  9580     051A                     l2331:
  9581     051A  084C               	movf	___flmul@aexp,w
  9582     051B  1903               	btfsc	3,2
  9583     051C  2D1E               	goto	u2861
  9584     051D  2D1F               	goto	u2860
  9585     051E                     u2861:
  9586     051E  2D47               	goto	l2341
  9587     051F                     u2860:
  9588     051F                     l2333:
  9589     051F  3001               	movlw	1
  9590     0520  07CE               	addwf	___flmul@prod,f
  9591     0521  3000               	movlw	0
  9592     0522  3DCF               	addwfc	___flmul@prod+1,f
  9593     0523  3000               	movlw	0
  9594     0524  3DD0               	addwfc	___flmul@prod+2,f
  9595     0525  3000               	movlw	0
  9596     0526  3DD1               	addwfc	___flmul@prod+3,f
  9597     0527                     l2335:
  9598     0527  1C51               	btfss	___flmul@prod+3,0
  9599     0528  2D2A               	goto	u2871
  9600     0529  2D2B               	goto	u2870
  9601     052A                     u2871:
  9602     052A  2D47               	goto	l2341
  9603     052B                     u2870:
  9604     052B                     l2337:
  9605     052B  084E               	movf	___flmul@prod,w
  9606     052C  00C2               	movwf	??___flmul
  9607     052D  084F               	movf	___flmul@prod+1,w
  9608     052E  00C3               	movwf	??___flmul+1
  9609     052F  0850               	movf	___flmul@prod+2,w
  9610     0530  00C4               	movwf	??___flmul+2
  9611     0531  0851               	movf	___flmul@prod+3,w
  9612     0532  00C5               	movwf	??___flmul+3
  9613     0533  3001               	movlw	1
  9614     0534  00C6               	movwf	??___flmul+4
  9615     0535                     u2885:
  9616     0535  37C5               	asrf	??___flmul+3,f
  9617     0536  0CC4               	rrf	??___flmul+2,f
  9618     0537  0CC3               	rrf	??___flmul+1,f
  9619     0538  0CC2               	rrf	??___flmul,f
  9620     0539                     u2880:
  9621     0539  0BC6               	decfsz	??___flmul+4,f
  9622     053A  2D35               	goto	u2885
  9623     053B  0845               	movf	??___flmul+3,w
  9624     053C  00D1               	movwf	___flmul@prod+3
  9625     053D  0844               	movf	??___flmul+2,w
  9626     053E  00D0               	movwf	___flmul@prod+2
  9627     053F  0843               	movf	??___flmul+1,w
  9628     0540  00CF               	movwf	___flmul@prod+1
  9629     0541  0842               	movf	??___flmul,w
  9630     0542  00CE               	movwf	___flmul@prod
  9631     0543                     l2339:
  9632     0543  3001               	movlw	1
  9633     0544  07D2               	addwf	___flmul@temp,f
  9634     0545  3000               	movlw	0
  9635     0546  3DD3               	addwfc	___flmul@temp+1,f
  9636     0547                     l2341:
  9637     0547  0853               	movf	___flmul@temp+1,w
  9638     0548  3A80               	xorlw	128
  9639     0549  00C2               	movwf	??___flmul
  9640     054A  3080               	movlw	128
  9641     054B  0242               	subwf	??___flmul,w
  9642     054C  1D03               	skipz
  9643     054D  2D50               	goto	u2895
  9644     054E  30FF               	movlw	255
  9645     054F  0252               	subwf	___flmul@temp,w
  9646     0550                     u2895:
  9647     0550  1C03               	skipc
  9648     0551  2D53               	goto	u2891
  9649     0552  2D54               	goto	u2890
  9650     0553                     u2891:
  9651     0553  2D5E               	goto	l2345
  9652     0554                     u2890:
  9653     0554                     l2343:
  9654     0554  307F               	movlw	127
  9655     0555  0020               	movlb	0	; select bank0
  9656     0556  00D1               	movwf	___flmul@prod+3
  9657     0557  3080               	movlw	128
  9658     0558  00D0               	movwf	___flmul@prod+2
  9659     0559  3000               	movlw	0
  9660     055A  00CF               	movwf	___flmul@prod+1
  9661     055B  3000               	movlw	0
  9662     055C  00CE               	movwf	___flmul@prod
  9663     055D  2D89               	goto	l754
  9664     055E                     l2345:
  9665     055E  0020               	movlb	0	; select bank0
  9666     055F  0853               	movf	___flmul@temp+1,w
  9667     0560  3A80               	xorlw	128
  9668     0561  00C2               	movwf	??___flmul
  9669     0562  3080               	movlw	128
  9670     0563  0242               	subwf	??___flmul,w
  9671     0564  1D03               	skipz
  9672     0565  2D68               	goto	u2905
  9673     0566  3001               	movlw	1
  9674     0567  0252               	subwf	___flmul@temp,w
  9675     0568                     u2905:
  9676     0568  1803               	skipnc
  9677     0569  2D6B               	goto	u2901
  9678     056A  2D6C               	goto	u2900
  9679     056B                     u2901:
  9680     056B  2D77               	goto	l2351
  9681     056C                     u2900:
  9682     056C                     l2347:
  9683     056C  3000               	movlw	0
  9684     056D  0020               	movlb	0	; select bank0
  9685     056E  00D1               	movwf	___flmul@prod+3
  9686     056F  3000               	movlw	0
  9687     0570  00D0               	movwf	___flmul@prod+2
  9688     0571  3000               	movlw	0
  9689     0572  00CF               	movwf	___flmul@prod+1
  9690     0573  3000               	movlw	0
  9691     0574  00CE               	movwf	___flmul@prod
  9692     0575                     l2349:
  9693     0575  01C7               	clrf	___flmul@sign
  9694     0576  2D89               	goto	l754
  9695     0577                     l2351:
  9696     0577  0020               	movlb	0	; select bank0
  9697     0578  0852               	movf	___flmul@temp,w
  9698     0579  00CD               	movwf	___flmul@bexp
  9699     057A  30FF               	movlw	255
  9700     057B  05CE               	andwf	___flmul@prod,f
  9701     057C  30FF               	movlw	255
  9702     057D  05CF               	andwf	___flmul@prod+1,f
  9703     057E  307F               	movlw	127
  9704     057F  05D0               	andwf	___flmul@prod+2,f
  9705     0580  3000               	movlw	0
  9706     0581  05D1               	andwf	___flmul@prod+3,f
  9707     0582                     l2353:
  9708     0582  1C4D               	btfss	___flmul@bexp,0
  9709     0583  2D85               	goto	u2911
  9710     0584  2D86               	goto	u2910
  9711     0585                     u2911:
  9712     0585  2D87               	goto	l2357
  9713     0586                     u2910:
  9714     0586                     l2355:
  9715     0586  17D0               	bsf	___flmul@prod+2,7
  9716     0587                     l2357:
  9717     0587  364D               	lsrf	___flmul@bexp,w
  9718     0588  00D1               	movwf	___flmul@prod+3
  9719     0589                     l754:
  9720     0589  0847               	movf	___flmul@sign,w
  9721     058A  00C2               	movwf	??___flmul
  9722     058B  0842               	movf	??___flmul,w
  9723     058C  04D1               	iorwf	___flmul@prod+3,f
  9724     058D                     l2359:
  9725     058D  0851               	movf	___flmul@prod+3,w
  9726     058E  00BD               	movwf	?___flmul+3
  9727     058F  0850               	movf	___flmul@prod+2,w
  9728     0590  00BC               	movwf	?___flmul+2
  9729     0591  084F               	movf	___flmul@prod+1,w
  9730     0592  00BB               	movwf	?___flmul+1
  9731     0593  084E               	movf	___flmul@prod,w
  9732     0594  00BA               	movwf	?___flmul
  9733     0595                     l742:
  9734     0595  0008               	return
  9735     0596                     __end_of___flmul:
  9736                           
  9737                           	psect	text25
  9738     1690                     __ptext25:	
  9739 ;; *************** function __Umul8_16 *****************
  9740 ;; Defined at:
  9741 ;;		line 4 in file "C:\Program Files\Microchip\xc8\v2.40\pic\sources\c99\common\Umul8_16.c"
  9742 ;; Parameters:    Size  Location     Type
  9743 ;;  multiplier      1    wreg     unsigned char 
  9744 ;;  multiplicand    1    1[COMMON] unsigned char 
  9745 ;; Auto vars:     Size  Location     Type
  9746 ;;  multiplier      1    9[COMMON] unsigned char 
  9747 ;;  word_mpld       2    7[COMMON] unsigned int 
  9748 ;;  product         2    5[COMMON] unsigned int 
  9749 ;; Return value:  Size  Location     Type
  9750 ;;                  2    1[COMMON] unsigned int 
  9751 ;; Registers used:
  9752 ;;		wreg, status,2, status,0
  9753 ;; Tracked objects:
  9754 ;;		On entry : 0/0
  9755 ;;		On exit  : 0/0
  9756 ;;		Unchanged: 0/0
  9757 ;; Data sizes:     COMMON   BANK0   BANK1   BANK2   BANK3   BANK4   BANK5   BANK6   BANK7   BANK8   BANK9  BANK10  BANK1
      +1  BANK12
  9758 ;;      Params:         2       0       0       0       0       0       0       0       0       0       0       0       
      +0       0
  9759 ;;      Locals:         5       0       0       0       0       0       0       0       0       0       0       0       
      +0       0
  9760 ;;      Temps:          2       0       0       0       0       0       0       0       0       0       0       0       
      +0       0
  9761 ;;      Totals:         9       0       0       0       0       0       0       0       0       0       0       0       
      +0       0
  9762 ;;Total ram usage:        9 bytes
  9763 ;; Hardware stack levels used: 1
  9764 ;; Hardware stack levels required when called: 1
  9765 ;; This function calls:
  9766 ;;		Nothing
  9767 ;; This function is called by:
  9768 ;;		___flmul
  9769 ;; This function uses a non-reentrant model
  9770 ;;
  9771                           
  9772     1690                     __Umul8_16:	
  9773                           ;psect for function __Umul8_16
  9774                           
  9775                           
  9776                           ;incstack = 0
  9777                           ; Regs used in __Umul8_16: [wreg+status,2+status,0]
  9778                           ;__Umul8_16@multiplier stored from wreg
  9779     1690  00F9               	movwf	__Umul8_16@multiplier
  9780     1691                     l1967:
  9781     1691  01F5               	clrf	__Umul8_16@product
  9782     1692  01F6               	clrf	__Umul8_16@product+1
  9783     1693                     l1969:
  9784     1693  0871               	movf	__Umul8_16@multiplicand,w
  9785     1694  00F3               	movwf	??__Umul8_16
  9786     1695  01F4               	clrf	??__Umul8_16+1
  9787     1696  0873               	movf	??__Umul8_16,w
  9788     1697  00F7               	movwf	__Umul8_16@word_mpld
  9789     1698  0874               	movf	??__Umul8_16+1,w
  9790     1699  00F8               	movwf	__Umul8_16@word_mpld+1
  9791     169A                     l1971:
  9792     169A  1C79               	btfss	__Umul8_16@multiplier,0
  9793     169B  2E9D               	goto	u2131
  9794     169C  2E9E               	goto	u2130
  9795     169D                     u2131:
  9796     169D  2EA2               	goto	l761
  9797     169E                     u2130:
  9798     169E                     l1973:
  9799     169E  0877               	movf	__Umul8_16@word_mpld,w
  9800     169F  07F5               	addwf	__Umul8_16@product,f
  9801     16A0  0878               	movf	__Umul8_16@word_mpld+1,w
  9802     16A1  3DF6               	addwfc	__Umul8_16@product+1,f
  9803     16A2                     l761:
  9804     16A2  3001               	movlw	1
  9805     16A3                     u2145:
  9806     16A3  35F7               	lslf	__Umul8_16@word_mpld,f
  9807     16A4  0DF8               	rlf	__Umul8_16@word_mpld+1,f
  9808     16A5  0B89               	decfsz	9,f
  9809     16A6  2EA3               	goto	u2145
  9810     16A7  1003               	clrc
  9811     16A8  0CF9               	rrf	__Umul8_16@multiplier,f
  9812     16A9                     l1975:
  9813     16A9  0879               	movf	__Umul8_16@multiplier,w
  9814     16AA  1D03               	btfss	3,2
  9815     16AB  2EAD               	goto	u2151
  9816     16AC  2EAE               	goto	u2150
  9817     16AD                     u2151:
  9818     16AD  2E9A               	goto	l1971
  9819     16AE                     u2150:
  9820     16AE                     l1977:
  9821     16AE  0876               	movf	__Umul8_16@product+1,w
  9822     16AF  00F2               	movwf	?__Umul8_16+1
  9823     16B0  0875               	movf	__Umul8_16@product,w
  9824     16B1  00F1               	movwf	?__Umul8_16
  9825     16B2                     l763:
  9826     16B2  0008               	return
  9827     16B3                     __end_of__Umul8_16:
  9828                           
  9829                           	psect	intentry
  9830     0004                     __pintentry:	
  9831 ;; *************** function _ISR *****************
  9832 ;; Defined at:
  9833 ;;		line 30 in file "main.c"
  9834 ;; Parameters:    Size  Location     Type
  9835 ;;		None
  9836 ;; Auto vars:     Size  Location     Type
  9837 ;;		None
  9838 ;; Return value:  Size  Location     Type
  9839 ;;                  1    wreg      void 
  9840 ;; Registers used:
  9841 ;;		wreg, status,2, status,0
  9842 ;; Tracked objects:
  9843 ;;		On entry : 0/0
  9844 ;;		On exit  : 0/0
  9845 ;;		Unchanged: 0/0
  9846 ;; Data sizes:     COMMON   BANK0   BANK1   BANK2   BANK3   BANK4   BANK5   BANK6   BANK7   BANK8   BANK9  BANK10  BANK1
      +1  BANK12
  9847 ;;      Params:         0       0       0       0       0       0       0       0       0       0       0       0       
      +0       0
  9848 ;;      Locals:         0       0       0       0       0       0       0       0       0       0       0       0       
      +0       0
  9849 ;;      Temps:          1       0       0       0       0       0       0       0       0       0       0       0       
      +0       0
  9850 ;;      Totals:         1       0       0       0       0       0       0       0       0       0       0       0       
      +0       0
  9851 ;;Total ram usage:        1 bytes
  9852 ;; Hardware stack levels used: 1
  9853 ;; This function calls:
  9854 ;;		Nothing
  9855 ;; This function is called by:
  9856 ;;		Interrupt level 1
  9857 ;; This function uses a non-reentrant model
  9858 ;;
  9859                           
  9860     0004                     _ISR:
  9861                           
  9862                           ;incstack = 0
  9863     0004  147E               	bsf	int$flags,0	;set compiler interrupt flag (level 1)
  9864                           
  9865                           ; Regs used in _ISR: [wreg+status,2+status,0]
  9866     0005  3180               	pagesel	$
  9867     0006                     i1l2575:
  9868                           
  9869                           ;main.c: 31:     if(INTCONbits.IOCIE == 1 && INTCONbits.IOCIF == 1){
  9870     0006  1D8B               	btfss	11,3	;volatile
  9871     0007  2809               	goto	u312_21
  9872     0008  280A               	goto	u312_20
  9873     0009                     u312_21:
  9874     0009  2820               	goto	i1l2589
  9875     000A                     u312_20:
  9876     000A                     i1l2577:
  9877     000A  1C0B               	btfss	11,0	;volatile
  9878     000B  280D               	goto	u313_21
  9879     000C  280E               	goto	u313_20
  9880     000D                     u313_21:
  9881     000D  2820               	goto	i1l2589
  9882     000E                     u313_20:
  9883     000E                     i1l2579:
  9884                           
  9885                           ;main.c: 32:         if (IOCAF5 == 1){
  9886     000E  0027               	movlb	7	; select bank7
  9887     000F  1E93               	btfss	19,5	;volatile
  9888     0010  2812               	goto	u314_21
  9889     0011  2813               	goto	u314_20
  9890     0012                     u314_21:
  9891     0012  281F               	goto	i1l2587
  9892     0013                     u314_20:
  9893     0013                     i1l2581:
  9894                           
  9895                           ;main.c: 33:             IOCAF5 = 0;
  9896     0013  1293               	bcf	19,5	;volatile
  9897     0014                     i1l2583:
  9898                           
  9899                           ;main.c: 34:             pgpres = pg;
  9900     0014  0021               	movlb	1	; select bank1
  9901     0015  085B               	movf	_pg^(0+128),w
  9902     0016  00DA               	movwf	_pgpres^(0+128)
  9903     0017                     i1l2585:
  9904                           
  9905                           ;main.c: 35:             pg = !pg;
  9906     0017  085B               	movf	_pg^(0+128),w
  9907     0018  1903               	btfsc	3,2
  9908     0019  281B               	goto	u315_21
  9909     001A  281D               	goto	u315_20
  9910     001B                     u315_21:
  9911     001B  3001               	movlw	1
  9912     001C  281E               	goto	u316_20
  9913     001D                     u315_20:
  9914     001D  3000               	movlw	0
  9915     001E                     u316_20:
  9916     001E  00DB               	movwf	_pg^(0+128)
  9917     001F                     i1l2587:
  9918                           
  9919                           ;main.c: 38:         INTCONbits.IOCIF = 0;
  9920     001F  100B               	bcf	11,0	;volatile
  9921     0020                     i1l2589:
  9922                           
  9923                           ;main.c: 41:     if(PIR1bits.TMR1GIF){
  9924     0020  0020               	movlb	0	; select bank0
  9925     0021  1F90               	btfss	16,7	;volatile
  9926     0022  2824               	goto	u317_21
  9927     0023  2825               	goto	u317_20
  9928     0024                     u317_21:
  9929     0024  284E               	goto	i1l2605
  9930     0025                     u317_20:
  9931     0025                     i1l2591:
  9932                           
  9933                           ;main.c: 42:         PIR1bits.TMR1GIF = 0;
  9934     0025  1390               	bcf	16,7	;volatile
  9935     0026                     i1l2593:
  9936                           
  9937                           ;main.c: 44:         gate = !gate;
  9938     0026  0021               	movlb	1	; select bank1
  9939     0027  0859               	movf	_gate^(0+128),w
  9940     0028  1903               	btfsc	3,2
  9941     0029  282B               	goto	u318_21
  9942     002A  282D               	goto	u318_20
  9943     002B                     u318_21:
  9944     002B  3001               	movlw	1
  9945     002C  282E               	goto	u319_20
  9946     002D                     u318_20:
  9947     002D  3000               	movlw	0
  9948     002E                     u319_20:
  9949     002E  00D9               	movwf	_gate^(0+128)
  9950                           
  9951                           ;main.c: 45:         if (gate){
  9952     002F  0859               	movf	_gate^(0+128),w
  9953     0030  1903               	btfsc	3,2
  9954     0031  2833               	goto	u320_21
  9955     0032  2834               	goto	u320_20
  9956     0033                     u320_21:
  9957     0033  283D               	goto	i1l84
  9958     0034                     u320_20:
  9959     0034                     i1l2595:
  9960                           
  9961                           ;main.c: 46:             TMR1H = 0;
  9962     0034  0020               	movlb	0	; select bank0
  9963     0035  0197               	clrf	23	;volatile
  9964                           
  9965                           ;main.c: 47:             TMR1L = 0;
  9966     0036  0196               	clrf	22	;volatile
  9967                           
  9968                           ;main.c: 48:             overFlow = 0;
  9969     0037  0021               	movlb	1	; select bank1
  9970     0038  01D8               	clrf	_overFlow^(0+128)
  9971                           
  9972                           ;main.c: 49:             mesure = 0;
  9973     0039  01D4               	clrf	_mesure^(0+128)
  9974     003A                     i1l2597:
  9975                           
  9976                           ;main.c: 50:             LATCbits.LATC4 = 1;
  9977     003A  0022               	movlb	2	; select bank2
  9978     003B  160E               	bsf	14,4	;volatile
  9979                           
  9980                           ;main.c: 51:         } else {
  9981     003C  284E               	goto	i1l2605
  9982     003D                     i1l84:
  9983                           
  9984                           ;main.c: 52:             mesure = 1;
  9985     003D  01D4               	clrf	_mesure^(0+128)
  9986     003E  0AD4               	incf	_mesure^(0+128),f
  9987     003F                     i1l2599:
  9988                           
  9989                           ;main.c: 53:             tmr1h = TMR1H;
  9990     003F  0020               	movlb	0	; select bank0
  9991     0040  0817               	movf	23,w	;volatile
  9992     0041  0021               	movlb	1	; select bank1
  9993     0042  00D6               	movwf	_tmr1h^(0+128)
  9994                           
  9995                           ;main.c: 54:             tmr1l = TMR1L;
  9996     0043  0020               	movlb	0	; select bank0
  9997     0044  0816               	movf	22,w	;volatile
  9998     0045  0021               	movlb	1	; select bank1
  9999     0046  00D5               	movwf	_tmr1l^(0+128)
 10000     0047                     i1l2601:
 10001                           
 10002                           ;main.c: 55:             T1CONbits.TMR1ON = 0;
 10003     0047  0020               	movlb	0	; select bank0
 10004     0048  1018               	bcf	24,0	;volatile
 10005                           
 10006                           ;main.c: 56:             overFsave = overFlow;
 10007     0049  0021               	movlb	1	; select bank1
 10008     004A  0858               	movf	_overFlow^(0+128),w
 10009     004B  00D7               	movwf	_overFsave^(0+128)
 10010     004C                     i1l2603:
 10011                           
 10012                           ;main.c: 57:             LATCbits.LATC4 = 0;
 10013     004C  0022               	movlb	2	; select bank2
 10014     004D  120E               	bcf	14,4	;volatile
 10015     004E                     i1l2605:
 10016                           
 10017                           ;main.c: 60:     if(PIR1bits.TMR1IF){
 10018     004E  0020               	movlb	0	; select bank0
 10019     004F  1C10               	btfss	16,0	;volatile
 10020     0050  2852               	goto	u321_21
 10021     0051  2853               	goto	u321_20
 10022     0052                     u321_21:
 10023     0052  2859               	goto	i1l87
 10024     0053                     u321_20:
 10025     0053                     i1l2607:
 10026                           
 10027                           ;main.c: 61:         PIR1bits.TMR1IF = 0;
 10028     0053  1010               	bcf	16,0	;volatile
 10029     0054                     i1l2609:
 10030                           
 10031                           ;main.c: 63:         overFlow++;
 10032     0054  3001               	movlw	1
 10033     0055  00F0               	movwf	??_ISR
 10034     0056  0870               	movf	??_ISR,w
 10035     0057  0021               	movlb	1	; select bank1
 10036     0058  07D8               	addwf	_overFlow^(0+128),f
 10037     0059                     i1l87:
 10038     0059  107E               	bcf	int$flags,0	;clear compiler interrupt flag (level 1)
 10039     005A  0009               	retfie
 10040     005B                     __end_of_ISR:
 10041     007E                     btemp	set	126	;btemp
 10042     007E                     int$flags	set	126
 10043     007E                     wtemp0	set	126
 10044                           
 10045                           	psect	idloc
 10046                           
 10047                           ;Config register IDLOC0 @ 0x8000
 10048                           ;	unspecified, using default values
 10049     8000                     	org	32768
 10050     8000  3FFF               	dw	16383
 10051                           
 10052                           ;Config register IDLOC1 @ 0x8001
 10053                           ;	unspecified, using default values
 10054     8001                     	org	32769
 10055     8001  3FFF               	dw	16383
 10056                           
 10057                           ;Config register IDLOC2 @ 0x8002
 10058                           ;	unspecified, using default values
 10059     8002                     	org	32770
 10060     8002  3FFF               	dw	16383
 10061                           
 10062                           ;Config register IDLOC3 @ 0x8003
 10063                           ;	unspecified, using default values
 10064     8003                     	org	32771
 10065     8003  3FFF               	dw	16383
 10066                           
 10067                           	psect	config
 10068                           
 10069                           ;Config register CONFIG1 @ 0x8007
 10070                           ;	Oscillator Selection Bits
 10071                           ;	FOSC = INTOSC, INTOSC oscillator: I/O function on CLKIN pin
 10072                           ;	Power-up Timer Enable
 10073                           ;	PWRTE = OFF, PWRT disabled
 10074                           ;	MCLR Pin Function Select
 10075                           ;	MCLRE = ON, MCLR/VPP pin function is MCLR
 10076                           ;	Flash Program Memory Code Protection
 10077                           ;	CP = OFF, Program memory code protection is disabled
 10078                           ;	Brown-out Reset Enable
 10079                           ;	BOREN = ON, Brown-out Reset enabled
 10080                           ;	Clock Out Enable
 10081                           ;	CLKOUTEN = OFF, CLKOUT function is disabled. I/O or oscillator function on the CLKOUT 
      +                          pin
 10082                           ;	Internal/External Switch Over
 10083                           ;	IESO = ON, Internal External Switch Over mode is enabled
 10084                           ;	Fail-Safe Clock Monitor Enable
 10085                           ;	FCMEN = ON, Fail-Safe Clock Monitor is enabled
 10086     8007                     	org	32775
 10087     8007  3FFC               	dw	16380
 10088                           
 10089                           ;Config register CONFIG2 @ 0x8008
 10090                           ;	Flash Memory Self-Write Protection
 10091                           ;	WRT = OFF, Write protection off
 10092                           ;	Peripheral Pin Select one-way control
 10093                           ;	PPS1WAY = ON, The PPSLOCK bit cannot be cleared once it is set by software
 10094                           ;	Zero Cross Detect Disable Bit
 10095                           ;	ZCD = OFF, ZCD disable.  ZCD can be enabled by setting the ZCDSEN bit of ZCDCON
 10096                           ;	PLL Enable Bit
 10097                           ;	PLLEN = ON, 4x PLL is always enabled
 10098                           ;	Stack Overflow/Underflow Reset Enable
 10099                           ;	STVREN = ON, Stack Overflow or Underflow will cause a Reset
 10100                           ;	Brown-out Reset Voltage Selection
 10101                           ;	BORV = LO, Brown-out Reset Voltage (Vbor), low trip point selected.
 10102                           ;	Low-Power Brown Out Reset
 10103                           ;	LPBOR = OFF, Low-Power BOR is disabled
 10104                           ;	Low-Voltage Programming Enable
 10105                           ;	LVP = ON, Low-voltage programming enabled
 10106     8008                     	org	32776
 10107     8008  3FFF               	dw	16383
 10108                           
 10109                           ;Config register CONFIG3 @ 0x8009
 10110                           ;	WDT Period Select
 10111                           ;	WDTCPS = WDTCPS1F, Software Control (WDTPS)
 10112                           ;	Watchdog Timer Enable
 10113                           ;	WDTE = OFF, WDT disabled
 10114                           ;	WDT Window Select
 10115                           ;	WDTCWS = WDTCWSSW, Software WDT window size control (WDTWS bits)
 10116                           ;	WDT Input Clock Selector
 10117                           ;	WDTCCS = SWC, Software control, controlled by WDTCS bits
 10118     8009                     	org	32777
 10119     8009  3F9F               	dw	16287

Data Sizes:
    Strings     71
    Constant    0
    Data        11
    BSS         18
    Persistent  33
    Stack       0

Auto Spaces:
    Space          Size  Autos    Used
    COMMON           14     12      13
    BANK0            80     78      78
    BANK1            80     44      74
    BANK2            80      0       0
    BANK3            80      0       0
    BANK4            80      0       0
    BANK5            80      0       0
    BANK6            80      0       0
    BANK7            80      0       0
    BANK8            80      0       0
    BANK9            80      0       0
    BANK10           80      0       0
    BANK11           80      0       0
    BANK12           48      0       0

Pointer List with Targets:

    FREQ_Afficher@XX	PTR unsigned char  size(2) Largest target is 8
		 -> STR_6(CODE[8]), 

    LCD_Print@Str	PTR unsigned char  size(2) Largest target is 19
		 -> STR_6(CODE[8]), STR_5(CODE[4]), STR_4(CODE[4]), STR_3(CODE[19]), 
		 -> STR_2(CODE[18]), STR_1(CODE[18]), 

    pg2	PTR unsigned char  size(2) Largest target is 4
		 -> STR_5(CODE[4]), 

    pg1	PTR unsigned char  size(2) Largest target is 4
		 -> STR_4(CODE[4]), 

    str2	PTR unsigned char  size(2) Largest target is 19
		 -> STR_3(CODE[19]), 

    str1	PTR unsigned char  size(2) Largest target is 18
		 -> STR_2(CODE[18]), 

    str0	PTR unsigned char  size(2) Largest target is 18
		 -> STR_1(CODE[18]), 


Critical Paths under _main in COMMON

    _main->_LCD_Begin
    _main->_LCD_Print
    _main->_LCD_SetCursor
    _LCD_SetCursor->_instructionLCD
    _LCD_Clr->_instructionLCD
    _LCD_Begin->_instructionLCD
    _instructionLCD->_LCD_Envoi
    _FREQ_Afficher->_LCD_Print
    _FREQ_Afficher->___fltol
    _LCD_Print->_LCD_Envoi
    _LCD_Envoi->_IIC_Emis
    _ADC_Afficher_Tension->___fltol
    _afficherCaractereLCD->_IIC_Emis
    ___fladd->___xxtofl
    ___flmul->__Umul8_16

Critical Paths under _ISR in COMMON

    None.

Critical Paths under _main in BANK0

    _main->___fldiv
    _FREQ_Afficher->___fldiv
    ___fldiv->___flmul
    _ADC_Conv->___flmul
    ___fltol->___fldiv
    ___flsub->___fldiv
    ___fladd->___xxtofl
    ___flmul->___fladd

Critical Paths under _ISR in BANK0

    None.

Critical Paths under _main in BANK1

    _main->_FREQ_Afficher
    _FREQ_Afficher->___fltol
    _ADC_Afficher_Tension->___fltol
    ___fltol->___flsub

Critical Paths under _ISR in BANK1

    None.

Critical Paths under _main in BANK2

    None.

Critical Paths under _ISR in BANK2

    None.

Critical Paths under _main in BANK3

    None.

Critical Paths under _ISR in BANK3

    None.

Critical Paths under _main in BANK4

    None.

Critical Paths under _ISR in BANK4

    None.

Critical Paths under _main in BANK5

    None.

Critical Paths under _ISR in BANK5

    None.

Critical Paths under _main in BANK6

    None.

Critical Paths under _ISR in BANK6

    None.

Critical Paths under _main in BANK7

    None.

Critical Paths under _ISR in BANK7

    None.

Critical Paths under _main in BANK8

    None.

Critical Paths under _ISR in BANK8

    None.

Critical Paths under _main in BANK9

    None.

Critical Paths under _ISR in BANK9

    None.

Critical Paths under _main in BANK10

    None.

Critical Paths under _ISR in BANK10

    None.

Critical Paths under _main in BANK11

    None.

Critical Paths under _ISR in BANK11

    None.

Critical Paths under _main in BANK12

    None.

Critical Paths under _ISR in BANK12

    None.

Call Graph Tables:

 ---------------------------------------------------------------------------------
 (Depth) Function   	        Calls       Base Space   Used Autos Params    Refs
 ---------------------------------------------------------------------------------
 (0) _main                                                 5     5      0   77521
                                             39 BANK1      5     5      0
               _ADC_Afficher_Tension
                           _ADC_Conv
                           _ADC_Init
                      _FREQ_Afficher
                          _FREQ_init
                           _IIC_Init
                         _IntDisable
                          _IntEnable
                          _LCD_Begin
                            _LCD_Clr
                          _LCD_Print
                      _LCD_SetCursor
                            ___fladd
                            ___fldiv
                            ___flmul
                             ___lmul
                           ___xxtofl
 ---------------------------------------------------------------------------------
 (1) ___lmul                                              12     4      8     316
                                              1 COMMON     8     0      8
                                              0 BANK0      4     4      0
 ---------------------------------------------------------------------------------
 (1) _LCD_SetCursor                                        5     3      2    5967
                                             10 COMMON     2     0      2
                                              0 BANK0      3     3      0
                     _instructionLCD
 ---------------------------------------------------------------------------------
 (1) _LCD_Clr                                              1     1      0    4279
                                             10 COMMON     1     1      0
                     _instructionLCD
 ---------------------------------------------------------------------------------
 (1) _LCD_Begin                                            2     2      0    7239
                                             10 COMMON     2     2      0
                          _LCD_Envoi
                     _instructionLCD
 ---------------------------------------------------------------------------------
 (2) _instructionLCD                                       3     2      1    4248
                                              7 COMMON     3     2      1
                          _LCD_Envoi
 ---------------------------------------------------------------------------------
 (1) _IntEnable                                            0     0      0       0
 ---------------------------------------------------------------------------------
 (1) _IntDisable                                           0     0      0       0
 ---------------------------------------------------------------------------------
 (1) _IIC_Init                                             0     0      0       0
 ---------------------------------------------------------------------------------
 (1) _FREQ_init                                            0     0      0       0
 ---------------------------------------------------------------------------------
 (1) _FREQ_Afficher                                       23    19      4   22546
                                             16 BANK1     23    19      4
                          _LCD_Print
                            ___fldiv
                             ___flge
                            ___flmul
                            ___flsub
                            ___fltol
                           ___xxtofl
               _afficherCaractereLCD
 ---------------------------------------------------------------------------------
 (2) ___flge                                              12     4      8     446
                                              1 COMMON     8     0      8
                                              0 BANK0      4     4      0
 ---------------------------------------------------------------------------------
 (1) ___fldiv                                             26    18      8    1881
                                             52 BANK0     26    18      8
                            ___fladd (ARG)
                            ___flmul (ARG)
                           ___xxtofl (ARG)
 ---------------------------------------------------------------------------------
 (1) _LCD_Print                                            7     5      2    3506
                                              7 COMMON     5     3      2
                                              0 BANK0      2     2      0
                          _LCD_Envoi
 ---------------------------------------------------------------------------------
 (3) _LCD_Envoi                                            3     2      1    2712
                                              4 COMMON     3     2      1
                           _IIC_Emis
 ---------------------------------------------------------------------------------
 (1) _ADC_Init                                             0     0      0       0
 ---------------------------------------------------------------------------------
 (1) _ADC_Conv                                            12     8      4    5954
                                             10 COMMON     1     1      0
                                             52 BANK0     11     7      4
                            ___flmul
                           ___xxtofl
 ---------------------------------------------------------------------------------
 (1) _ADC_Afficher_Tension                                21    17      4   16676
                                             16 BANK1     21    17      4
                           _ADC_Conv (ARG)
                            ___flmul
                            ___flsub
                            ___fltol
                           ___xxtofl
               _afficherCaractereLCD
 ---------------------------------------------------------------------------------
 (2) _afficherCaractereLCD                                 5     4      1    3323
                                              4 COMMON     5     4      1
                           _IIC_Emis
 ---------------------------------------------------------------------------------
 (4) _IIC_Emis                                             3     1      2    1713
                                              1 COMMON     3     1      2
 ---------------------------------------------------------------------------------
 (1) ___xxtofl                                            14    10      4    1462
                                              1 COMMON     8     4      4
                                              0 BANK0      6     6      0
 ---------------------------------------------------------------------------------
 (2) ___fltol                                             10     6      4    1057
                                             10 COMMON     2     2      0
                                              8 BANK1      8     4      4
                            ___fldiv (ARG)
                            ___flmul (ARG)
                            ___flsub (ARG)
                           ___xxtofl (ARG)
 ---------------------------------------------------------------------------------
 (2) ___flsub                                              8     0      8    5527
                                              0 BANK1      8     0      8
                            ___fladd
                            ___fldiv (ARG)
                            ___flmul (ARG)
                           ___xxtofl (ARG)
 ---------------------------------------------------------------------------------
 (1) ___fladd                                             20    12      8    3302
                                              6 BANK0     20    12      8
                           ___xxtofl (ARG)
 ---------------------------------------------------------------------------------
 (1) ___flmul                                             26    18      8    4393
                                             26 BANK0     26    18      8
                          __Umul8_16
                            ___fladd (ARG)
                           ___xxtofl (ARG)
 ---------------------------------------------------------------------------------
 (2) __Umul8_16                                            9     7      2     799
                                              1 COMMON     9     7      2
 ---------------------------------------------------------------------------------
 Estimated maximum stack depth 4
 ---------------------------------------------------------------------------------
 (Depth) Function   	        Calls       Base Space   Used Autos Params    Refs
 ---------------------------------------------------------------------------------
 (5) _ISR                                                  1     1      0       0
                                              0 COMMON     1     1      0
 ---------------------------------------------------------------------------------
 Estimated maximum stack depth 5
 ---------------------------------------------------------------------------------

 Call Graph Graphs:

 _main (ROOT)
   _ADC_Afficher_Tension
     _ADC_Conv (ARG)
       ___flmul
         __Umul8_16
         ___fladd (ARG)
           ___xxtofl (ARG)
         ___xxtofl (ARG)
       ___xxtofl
     ___flmul (ARG)
     ___flsub (ARG)
       ___fladd
       ___fldiv (ARG)
         ___fladd (ARG)
         ___flmul (ARG)
         ___xxtofl (ARG)
       ___flmul (ARG)
       ___xxtofl (ARG)
     ___fltol (ARG)
       ___fldiv (ARG)
       ___flmul (ARG)
       ___flsub (ARG)
       ___xxtofl (ARG)
     ___xxtofl (ARG)
     _afficherCaractereLCD (ARG)
       _IIC_Emis
   _ADC_Conv
   _ADC_Init
   _FREQ_Afficher
     _LCD_Print
       _LCD_Envoi
         _IIC_Emis
     ___fldiv
     ___flge
     ___flmul
     ___flsub
     ___fltol
     ___xxtofl
     _afficherCaractereLCD
   _FREQ_init
   _IIC_Init
   _IntDisable
   _IntEnable
   _LCD_Begin
     _LCD_Envoi
     _instructionLCD
       _LCD_Envoi
   _LCD_Clr
     _instructionLCD
   _LCD_Print
   _LCD_SetCursor
     _instructionLCD
   ___fladd
   ___fldiv
   ___flmul
   ___lmul
   ___xxtofl

 _ISR (ROOT)

 Address spaces:
Name               Size   Autos  Total    Cost      Usage
BIGRAM             3F0      0       0       0        0.0%
NULL                 0      0       0       0        0.0%
CODE                 0      0       0       0        0.0%
BITCOMMON            E      0       1       1        7.1%
BITSFR0              0      0       0       1        0.0%
SFR0                 0      0       0       1        0.0%
COMMON               E      C       D       2       92.9%
BITSFR1              0      0       0       2        0.0%
SFR1                 0      0       0       2        0.0%
BITSFR2              0      0       0       3        0.0%
SFR2                 0      0       0       3        0.0%
STACK                0      0       0       3        0.0%
BITBANK0            50      0       0       4        0.0%
BITSFR3              0      0       0       4        0.0%
SFR3                 0      0       0       4        0.0%
BANK0               50     4E      4E       5       97.5%
BITSFR4              0      0       0       5        0.0%
SFR4                 0      0       0       5        0.0%
BITBANK1            50      0       0       6        0.0%
BITSFR5              0      0       0       6        0.0%
SFR5                 0      0       0       6        0.0%
BANK1               50     2C      4A       7       92.5%
BITSFR6              0      0       0       7        0.0%
SFR6                 0      0       0       7        0.0%
BITBANK2            50      0       0       8        0.0%
BITSFR7              0      0       0       8        0.0%
SFR7                 0      0       0       8        0.0%
BANK2               50      0       0       9        0.0%
BITSFR8              0      0       0       9        0.0%
SFR8                 0      0       0       9        0.0%
BITBANK3            50      0       0      10        0.0%
BITSFR9              0      0       0      10        0.0%
SFR9                 0      0       0      10        0.0%
BANK3               50      0       0      11        0.0%
BITSFR10             0      0       0      11        0.0%
SFR10                0      0       0      11        0.0%
BITBANK4            50      0       0      12        0.0%
BITSFR11             0      0       0      12        0.0%
SFR11                0      0       0      12        0.0%
BANK4               50      0       0      13        0.0%
BITSFR12             0      0       0      13        0.0%
SFR12                0      0       0      13        0.0%
BITBANK5            50      0       0      14        0.0%
BITSFR13             0      0       0      14        0.0%
SFR13                0      0       0      14        0.0%
BANK5               50      0       0      15        0.0%
BITSFR14             0      0       0      15        0.0%
SFR14                0      0       0      15        0.0%
BITBANK6            50      0       0      16        0.0%
BITSFR15             0      0       0      16        0.0%
SFR15                0      0       0      16        0.0%
BANK6               50      0       0      17        0.0%
BITSFR16             0      0       0      17        0.0%
SFR16                0      0       0      17        0.0%
BITBANK7            50      0       0      18        0.0%
BITSFR17             0      0       0      18        0.0%
SFR17                0      0       0      18        0.0%
BANK7               50      0       0      19        0.0%
BITSFR18             0      0       0      19        0.0%
SFR18                0      0       0      19        0.0%
BITSFR19             0      0       0      20        0.0%
SFR19                0      0       0      20        0.0%
ABS                  0      0      A5      20        0.0%
BITBANK8            50      0       0      21        0.0%
BITSFR20             0      0       0      21        0.0%
SFR20                0      0       0      21        0.0%
BANK8               50      0       0      22        0.0%
BITSFR21             0      0       0      22        0.0%
SFR21                0      0       0      22        0.0%
BITBANK9            50      0       0      23        0.0%
BITSFR22             0      0       0      23        0.0%
SFR22                0      0       0      23        0.0%
BANK9               50      0       0      24        0.0%
BITSFR23             0      0       0      24        0.0%
SFR23                0      0       0      24        0.0%
BITBANK10           50      0       0      25        0.0%
BITSFR24             0      0       0      25        0.0%
SFR24                0      0       0      25        0.0%
BANK10              50      0       0      26        0.0%
BITSFR25             0      0       0      26        0.0%
SFR25                0      0       0      26        0.0%
BITBANK11           50      0       0      27        0.0%
BITSFR26             0      0       0      27        0.0%
SFR26                0      0       0      27        0.0%
BANK11              50      0       0      28        0.0%
BITSFR27             0      0       0      28        0.0%
SFR27                0      0       0      28        0.0%
BITBANK12           30      0       0      29        0.0%
BITSFR28             0      0       0      29        0.0%
SFR28                0      0       0      29        0.0%
BANK12              30      0       0      30        0.0%
BITSFR29             0      0       0      30        0.0%
SFR29                0      0       0      30        0.0%
BITSFR30             0      0       0      31        0.0%
SFR30                0      0       0      31        0.0%
DATA                 0      0      A5      31        0.0%
BITSFR31             0      0       0      32        0.0%
SFR31                0      0       0      32        0.0%


Microchip Technology PIC Macro Assembler V2.40 build 20220703182018 
Symbol Table                                                                                   Thu Apr 06 21:00:14 2023

            FREQ_Afficher@dec 00C4              FREQ_Afficher@cen 00BE              FREQ_Afficher@dix 00C3  
                ___fldiv@aexp 006D                  ___fldiv@bexp 006C                  ___fldiv@sign 0065  
                          _RS 03E0                            _pg 00DB                 _LCD_SetCursor 07C6  
         __Umul8_16@word_mpld 0077                           l150 1686                           l231 0861  
                         l144 167C                           l136 1700                           l153 168A  
                         l209 165A                           l234 08A1                           l155 168E  
                         l147 1680                           l139 1671                           l156 168F  
                         l228 166D                           l237 07C5                           l173 1727  
                         l167 1751                           l191 0852                           l272 0003  
                         l176 098D                           l185 07FC                           l194 17FF  
                         l266 16D9                           l531 0A18                           l523 09AB  
                         l277 035A                           l269 07FE                           l702 0C9F  
                         l526 09FF                           l359 17BD                           l800 0A9B  
                         l704 0DF7                           l650 0ECB                           l546 08FD  
                         l539 0912                           l723 0DC9                           l652 0EA9  
                         l724 0DE3                           l549 0912                           l742 0595  
                         l646 0E4E                           l726 0DF0                           l718 0D7D  
                         l671 0F7D                           l680 0FD6                           l761 16A2  
                         l754 0589                           l763 16B2                           l667 0F5B  
                         l659 0FFF                           l748 0515                           l692 1787  
                         l677 0F9F                           l688 0FF8                           l792 0A75  
                         l689 0FFF                           l786 0A3C                           l788 0AC3  
                         l799 0A8F                           _ISR 0004                           _pg1 00E0  
                         _pg2 00DE                           _ini 00E9                           wreg 0009  
                ___flmul@aexp 004C                  ___flmul@bexp 004D                  ___flmul@sign 0047  
                ___flmul@temp 0052                  ___flmul@prod 004E               __end_of_LCD_Clr 165B  
                        ?_ISR 0070                  ___fltol@exp1 007B                          l2101 0C6E  
                        l2111 0C82                          l2103 0C76                          l2201 0DAB  
                        l2113 0C87                          l2121 0C97                          l2105 0C7B  
                        l3011 1752                          l2211 0DE2                          l2203 0DAF  
                        l2123 0CA7                          l2131 0CC0                          l2115 0C8C  
                        l2107 0C7D                          l2301 049F                          l3013 1755  
                        l3005 08F4                          l2213 0DE6                          l2205 0DBC  
                        l2141 0CE6                          l2133 0CC5                          l2125 0CB3  
                        l2117 0C94                          l2109 0C81                          l3021 0921  
                        l2311 04E5                          l2303 04B4                          l2231 0366  
                        l2223 035B                          l3007 0902                          l2215 0DEA  
                        l2207 0DD7                          l2151 0D0B                          l2143 0CEE  
                        l2127 0CB7                          l2119 0C95                          l3031 0955  
                        l3023 092E                          l3111 0AD3                          l3103 0AC4  
                        l2321 04F9                          l2313 04E9                          l2305 04CB  
                        l2241 0382                          l2233 036B                          l2225 035F  
                        l3009 0907                          l2401 0ABA                          l2217 0DEC  
                        l2209 0DDA                          l2161 0D2A                          l2153 0D0F  
                        l2145 0CF6                          l2137 0CCE                          l3041 0985  
                        l3033 095B                          l3025 0934                          l3017 0914  
                        l3121 0AE3                          l3113 0AD6                          l3105 0AC7  
                        l2331 051A                          l2323 04FA                          l2315 04EA  
                        l2307 04D2                          l2251 0393                          l2243 0387  
                        l2235 0370                          l2227 0361                          l2403 0ABB  
                        l2171 0D46                          l2163 0D32                          l2155 0D10  
                        l2147 0CF8                          l2139 0CDE                          l2091 0C59  
                        l2083 0C4E                          l2411 16DF                          l3035 0969  
                        l3027 0941                          l3019 0919                          l3043 1654  
                        l3051 07D9                          l3131 0B87                          l3123 0AE8  
                        l3115 0AD9                          l3107 0ACD                          l2333 051F  
                        l2341 0547                          l2325 04FE                          l2317 04F1  
                        l2309 04DE                          l2261 03AF                          l2253 0398  
                        l2245 0389                          l2237 0378                          l2229 0365  
                        l2173 0D4D                          l2181 0D5D                          l2149 0CFD  
                        l2157 0D17                          l2165 0D36                          l2093 0C5E  
                        l2085 0C52                          l2421 16E6                          l2413 16E0  
                        l3037 0971                          l3029 0948                          l3053 07E1  
                        l3045 07C8                          l3141 0BC9                          l3133 0B8B  
                        l3125 0AF7                          l3117 0AE0                          l3109 0AD0  
                        l2351 0577                          l2343 0554                          l2335 0527  
                        l2327 0512                          l2319 04F5                          l2271 03D5  
                        l2263 03B4                          l2255 03A0                          l2247 038D  
                        l2239 037A                          l3071 086C                          l3063 0855  
                        l2183 0D61                          l2175 0D51                          l2167 0D3C  
                        l2159 0D29                          l2095 0C63                          l2087 0C54  
                        l2431 16EE                          l2423 16E8                          l2415 16E1  
                        l2407 0002                          l3039 097F                          l3047 07C9  
                        l3055 07E9                          l3151 0C07                          l3143 0BD1  
                        l3135 0B91                          l3127 0B18                          l3119 0AE2  
                        l2353 0582                          l2345 055E                          l2337 052B  
                        l2281 042C                          l2273 03ED                          l2257 03A2  
                        l2249 038E                          l3073 0896                          l3065 085F  
                        l2193 0D82                          l2185 0D62                          l2177 0D52  
                        l2169 0D44                          l2097 0C6B                          l2089 0C58  
                        l3081 0078                          l2441 16FB                          l2433 16EF  
                        l2425 16E9                          l2417 16E3                          l2409 16DA  
                        l3049 07D1                          l3153 0C3C                          l3145 0BF1  
                        l3137 0BA9                          l3129 0B81                          l2355 0586  
                        l2347 056C                          l2339 0543                          l2291 0457  
                        l2283 0433                          l2275 03FA                          l2267 03BD  
                        l2259 03AA                          l2371 0A44                          l2363 0A1B  
                        l3075 0898                          l3067 0860                          l2451 1665  
                        l2195 0D87                          l2187 0D66                          l2179 0D59  
                        l2099 0C6C                          l3083 008F                          l2443 16FD  
                        l2435 16F3                          l2427 16EB                          l2419 16E5  
                        l2515 07FD                          l3091 1791                          l3155 0C3E  
                        l3147 0BF9                          l3139 0BC1                          l2357 0587  
                        l2349 0575                          l2293 0469                          l2285 043E  
                        l2277 0412                          l2269 03C8                          l2381 0A62  
                        l2365 0A20                          l2701 1675                          l3069 0865  
                        l2453 1666                          l2445 165B                          l2197 0D8F  
                        l2189 0D7A                          l3085 0094                          l2461 16C1  
                        l2437 16F6                          l2429 16EC                          l3093 1795  
                        l3149 0C02                          l2359 058D                          l2295 0470  
                        l2287 0445                          l2279 041F                          l2391 0A89  
                        l2383 0A66                          l2375 0A4D                          l2367 0A24  
                        l2703 1679                          l3079 0598                          l2455 1668  
                        l2447 165D                          l2711 1739                          l2199 0D93  
                        l3087 009D                          l2471 16CC                          l2463 16C6  
                        l2439 16F8                          l3095 179E                          l2297 0482  
                        l2289 0450                          l2801 0E7B                          l2721 0DF8  
                        l2393 0A93                          l2385 0A6E                          l2377 0A50  
                        l2369 0A34                          l2705 1684                          l2457 1669  
                        l2449 1663                          l2713 1739                          l2481 16D5  
                        l2473 16CF                          l2465 16C7                          l3097 17A5  
                        l3089 1788                          l2299 048D                          l2811 0EB7  
                        l2803 0E92                          l2731 0E08                          l2723 0DFC  
                        l2395 0A9D                          l2387 0A7C                          l2379 0A5B  
                        l2715 1743                          l2707 1729                          l2483 16D7  
                        l2475 16D1                          l2467 16C8                          l2459 16B3  
                        l3099 17B4                          l2901 0FE8                          l2821 0ED4  
                        l2813 0EB8                          l2805 0EAD                          l2741 0E20  
                        l2733 0E0D                          l2725 0DFE                          l2397 0AB1  
                        l2389 0A85                          l2717 1743                          l2709 172F  
                        l2485 16D8                          l2477 16D2                          l2469 16C9  
                        l2911 0FFA                          l2903 0FED                          l2831 0EED  
                        l2815 0EC0                          l2807 0EB1                          l2751 0E30  
                        l2743 0E23                          l2735 0E15                          l2727 0E02  
                        l2399 0AB6                          l2719 174D                          l2479 16D4  
                        l3199 07F1                          l2913 0FFE                          l2905 0FEE  
                        l2841 0F00                          l2833 0EF1                          l2825 0EDD  
                        l2809 0EB3                          l2817 0EC4                          l2761 0E44  
                        l2753 0E31                          l2745 0E29                          l2737 0E16  
                        l2729 0E03                          l2921 083D                          l1971 169A  
                        l2907 0FF2                          l2851 0F4A                          l2835 0EF3  
                        l2827 0EE5                          l2819 0ECF                          l2843 0F05  
                        l2771 0E5E                          l2755 0E36                          l2763 0E46  
                        l2747 0E2A                          l2739 0E18                          l2923 0842  
                        l2915 080E                          l2931 171D                          l1973 169E  
                        l2909 0FF4                          l2861 0F71                          l2845 0F1B  
                        l2853 0F53                          l2837 0EF7                          l2829 0EE9  
                        l2781 0E68                          l2773 0E60                          l2765 0E54  
                        l2757 0E3B                          l2749 0E2C                          l2941 17D4  
                        l2917 080F                          l2933 1723                          l2925 1702  
                        l1975 16A9                          l1967 1691                          l2871 0F86  
                        l2863 0F78                          l2855 0F63                          l2847 0F3F  
                        l2839 0EF8                          l2791 0E72                          l2783 0E6A  
                        l2775 0E62                          l2767 0E58                          l2759 0E43  
                        l2951 17FC                          l2943 17DC                          l2935 17BF  
                        l2919 0811                          l2927 1703                          l1977 16AE  
                        l1969 1693                          l2881 0F96                          l2873 0F8B  
                        l2865 0F7C                          l2857 0F68                          l2849 0F45  
                        l2793 0E74                          l2785 0E6C                          l2777 0E64  
                        l2769 0E5C                          l2945 17E4                          l2937 17C2  
                        l2961 09C7                          l2929 1718                          l2891 0FB1  
                        l2883 0F9C                          l2867 0F81                          l2875 0F8D  
                        l2795 0E76                          l2787 0E6E                          l2779 0E66  
                        l2699 166F                          l2947 17EC                          l2939 17CC  
                        l2971 0A17                          l2963 09CB                          l2955 098E  
                        l2893 0FB5                          l2869 0F84                          l2877 0F91  
                        l2797 0E78                          l2789 0E70                          l2981 08B5  
                        l2949 17F4                          l2965 09E3                          l2957 09A3  
                        l2895 0FD2                          l2887 0FA4                          l2879 0F92  
                        l2799 0E7A                          l2991 08D5                          l2983 08C6  
                        l2975 08A2                          l2967 09E7                          l2959 09BF  
                        l2897 0FDB                          l2889 0FA9                          l2985 08C7  
                        l2977 08AC                          l2969 0A15                          l2899 0FE0  
                        l2987 08CF                          l2997 08DD                          l2989 08D1  
                        l2999 08ED                   IIC_Emis@R_W 0071                          STR_1 1813  
                        STR_2 1825                          STR_3 1800                          STR_4 183F  
                        STR_5 1843                          STR_6 1837                          u3000 0A89  
                        u3001 0A88                          u2130 169E                          u3010 0A8F  
                        u2131 169D                          u3011 0A8E                          u3020 0A93  
                        u3021 0A92                          u2150 16AE                          u3030 0AA7  
                        u2151 16AD                          _LATC 010E                          u3040 0AB6  
                        u2400 0C81                          u2145 16A3                          u3041 0AB5  
                        u2401 0C80                          u3050 0ABA                          u2410 0C87  
                        u3051 0AB9                          u3035 0AA3                          u2411 0C86  
                        u3300 1684                          u2500 0D29                          u2420 0C8C  
                        u4020 17B4                          u3301 1683                          u2501 0D28  
                        u2421 0C8B                          u4021 17B3                          u4005 179F  
                        u3310 168A                          u2510 0D3C                          u2430 0CA7  
                        u4030 0ACD                          u3311 1689                          u2511 0D3B  
                        u2431 0CA6                          u4015 17A6                          u4031 0ACC  
                        u3400 0E54                          u3320 168E                          u2600 0D87  
                        u2520 0D44                          u2440 0CC5                          u4040 0AE8  
                        u3401 0E53                          u3321 168D                          u2601 0D86  
                        u2521 0D43                          u2505 0D25                          u2441 0CC4  
                        u4041 0AE7                          u3410 0E58                          u3330 0E02  
                        u2610 0D93                          u2450 0CFD                          u2370 0C58  
                        u4050 0B87                          u3411 0E57                          u3331 0E01  
                        u2611 0D92                          u2451 0CFC                          u2371 0C57  
                        u4107 092A                          u4051 0B86                          u2700 0393  
                        u3500 0ED4                          u3420 0E92                          u3340 0E08  
                        u2620 0DA1                          u2540 0D51                          u2380 0C5E  
                        u4060 0B91                          u2701 0392                          u3501 0ED3  
                        u3421 0E91                          u3341 0E07                          u2541 0D50  
                        u2381 0C5D                          u4117 0937                          u4061 0B90  
                 IIC_Emis@adr 0073                          u2710 0398                          u3510 0EE9  
                        u3430 0E9C                          u3350 0E0D                          u3270 1675  
                        u2630 0DBC                          u2390 0C63                          u4070 0C07  
                        u2711 0397                          u3511 0EE8                          u3431 0E9A  
                        u3351 0E0C                          u3271 1674                          u4207 17FD  
                        u2631 0DBB                          u2535 0D47                          u2391 0C62  
                        u4127 0944                          u4071 0C06                          u2800 04E9  
                        u2720 03AF                          u3600 0F7C                          u3520 0EED  
                        u3440 0E9D                          u3360 0E29                          u3280 1679  
                        u2640 0DD7                          u2560 0D61                          u2480 0D0F  
                        u2801 04E8                          u2721 03AE                          u3601 0F7B  
                        u3521 0EEC                          u3425 0E8E                          u3361 0E28  
                        u3281 1678                          u2641 0DD6                          u2625 0D9D  
                        u2561 0D60                          u2481 0D0E                          u2465 0CFE  
                        u4137 0951                          u2730 03B4                          u3610 0F81  
                        u3530 0EF7                          u3450 0EAD                          u3370 0E30  
                        u3290 1680                          u2650 0DEA                          u2570 0D66  
                        u2731 03B3                          u3611 0F80                          u3531 0EF6  
                        u3451 0EAC                          u3371 0E2F                          u3291 167F  
                        u2651 0DE9                          u2635 0DB8                          u2571 0D65  
                        u2555 0D53                          u2475 0D05                          u4147 095E  
                        u2900 056C                          u2820 04F9                          u2660 0365  
                        u3700 0FD2                          u3620 0F8B                          u3460 0EB7  
                        u3380 0E36                          u2580 0D7A                          u2901 056B  
                        u2821 04F8                          u2661 0364                          u3701 0FD1  
                        u3621 0F8A                          u3461 0EB6                          u3381 0E35  
                        u2645 0DD3                          u2581 0D79                          u4157 096C  
                        u2910 0586                          u2830 04FE                          u2670 036B  
                        u3710 0FDB                          u3630 0F91                          u3550 0F1B  
                        u3390 0E3B                          u2590 0D81                          u2911 0585  
                        u2831 04FD                          u2815 04EB                          u2671 036A  
                        u3711 0FDA                          u3631 0F90                          u3551 0F1A  
                        u3391 0E3A                          u2591 0D80                          u2495 0D11  
                        u4167 097A                          u4087 0C44                          u2840 0512  
                        u2760 04AA                          u2680 0370                          u3720 0FE0  
                        u3640 0F96                          u3560 0F4A                          u3480 0ECB  
                        u2920 0A20                          u3800 1723                          u2905 0568  
                        u2841 0511                          u2745 042D                          u2681 036F  
                        u3721 0FDF                          u3641 0F95                          u3561 0F49  
                        u3553 0F17                          u3545 0EFA                          u3481 0ECA  
                        u2921 0A1F                          u3801 1722                          u4177 0988  
                        u4097 091C                          u2850 0519                          u2770 04C1  
                        u2690 038D                          u3730 0FED                          u3650 0F9C  
                        u3570 0F63                          u3490 0ECF                          u2930 0A24  
                        u2851 0518                          u2755 0458                          u2691 038C  
                        u3731 0FEC                          u3651 0F9B                          u3571 0F62  
                        u3491 0ECE                          u3475 0EBA                          u2931 0A23  
                        u4187 1724                          u2860 051F                          u3740 0FF2  
                        u3660 0FA3                          u3580 0F68                          u3900 08DC  
                        u2940 0A44                          u3820 09A3                          u2861 051E  
                        u2765 04A6                          u3741 0FF1                          u3661 0FA2  
                        u3581 0F67                          u3901 08DB                          u2941 0A43  
                        u4197 174E                          u3821 09A2                          u2870 052B  
                        u3750 0FFE                          u3670 0FA9                          u3830 09BF  
                        u2871 052A                          u2775 04BD                          u3751 0FFD  
                        u3671 0FA8                          u3815 17C5                          u3831 09BE  
                        u2880 0539                          u3680 0FB5                          u3920 08EC  
                        u2960 0A61                          u3840 09CB                          u2785 04CC  
                        u3681 0FB4                          u3921 08EB                          u2961 0A60  
                        u3841 09CA                          u2890 0554                          u3690 0FC3  
                        u3930 08F3                          u3770 0852                          u3850 09E7  
                        u2891 0553                          u2795 04DF                          u3595 0F72  
                        u3931 08F2                          u3915 08DE                          u2955 0A55  
                        u3771 0851                          u3851 09E6                          u2980 0A7B  
                        u3860 0A15                          u2885 0535                          u2981 0A7A  
                        u3765 0832                          u3861 0A14                          u3950 0902  
                        u3870 08AC                          u3790 171D                          u2895 0550  
                        u3695 0FBF                          u3951 0901                          u3871 08AB  
                        u2975 0A6F                          u3791 171C                          u3960 0907  
                        u3880 08C2                          u3961 0906                          u3945 08F5  
                        u3865 0A11                          u3785 170D                          u3890 08D5  
                        u3970 0865                          u3891 08D4                          u2995 0A7F  
                        u3971 0864                          i1l84 003D                          u3980 008F  
                        u3885 08BE                          u3981 008E                          u3990 1795  
                        i1l87 0059                          u3991 1794                          _gate 00D9  
                        _main 0AC4                          _freq 00CC                ?_FREQ_Afficher 00B0  
                        _tmr1 00DC                          _str0 00E6                          _str1 00E4  
                        _str2 00E2                          fsr0h 0005                          fsr1h 0007  
                        indf0 0000                          fsr0l 0004                          fsr1l 0006  
                        btemp 007E              __end_of_ADC_Conv 08A2              __end_of_ADC_Init 166E  
                        start 005B               ___fldiv@new_exp 0066                         ??_ISR 0070  
                LCD_Begin@add 007B              __end_of_IIC_Emis 1690              __end_of_IIC_Init 1701  
              ?_LCD_SetCursor 007A                 ___fltol@sign1 007A               __end_of___fladd 1000  
                       ?_main 0070               __end_of___fldiv 0DF8               __end_of___flmul 0596  
             __end_of___flsub 1788               __end_of___fltol 0913                  IIC_Emis@data 0072  
                       _TMR1H 0017                         _TMR1L 0016          _afficherCaractereLCD 17BE  
         ___lmul@multiplicand 0075                         _tmr1h 00D6                         _tmr1l 00D5  
                       _temps 00D0                __pbitbssCOMMON 03E0                         status 0003  
                       wtemp0 007E                    _IntDisable 0002                  LCD_Envoi@add 0076  
             __initialization 005D                  __end_of_main 0C4E                        ??_main 00C7  
           __end_of_LCD_Begin 098E                _instructionLCD 1701             __end_of_LCD_Envoi 1752  
       ?_afficherCaractereLCD 0074                     ??_LCD_Clr 007A             __end_of_LCD_Print 0853  
           __end_of_FREQ_init 16DA      ADC_Afficher_Tension@MesF 00B0                  LCD_Print@Str 0077  
                LCD_Print@add 0020                        _ADRESH 009C                        _ADRESL 009B  
                      _IOCAF5 1C9D                        _T1GPPS 0E13                        _RC0PPS 0EA0  
                      _RC1PPS 0EA1               ??_FREQ_Afficher 00B4                        i1l2601 0047  
                      i1l2603 004C                        i1l2605 004E                        i1l2607 0053  
                      i1l2609 0054                        i1l2581 0013                        i1l2591 0025  
                      i1l2583 0014                        i1l2575 0006                        i1l2593 0026  
                      i1l2585 0017                        i1l2577 000A                        i1l2595 0034  
                      i1l2587 001F                        i1l2579 000E                        i1l2597 003A  
                      i1l2589 0020                        i1l2599 003F                        u320_20 0034  
                      u312_20 000A                        u320_21 0033                        u312_21 0009  
                      u321_20 0053                        u313_20 000E                        u321_21 0052  
                      u313_21 000D                        u314_20 0013                        u314_21 0012  
                      u315_20 001D                        u315_21 001B                        u316_20 001E  
                      u317_20 0025                        u317_21 0024                        u318_20 002D  
                      u318_21 002B                        u319_20 002E                        _SSPADD 0212  
            __end_of___xxtofl 0AC4                        ___flge 098E                        ___lmul 1788  
                   ??___fladd 002E                     ??___fldiv 005C               ??_LCD_SetCursor 0020  
                   ??___flmul 0042                     ??___flsub 007A                     ??___fltol 00AC  
      __end_of_instructionLCD 1728                        _mesure 00D4                        _pgpres 00DA  
                   ?_ADC_Conv 0054                     ?_ADC_Init 0070                    ___flge@ff1 0071  
                  ___flge@ff2 0075                  ___xxtofl@arg 0022                  ___xxtofl@exp 0021  
                ___xxtofl@val 0071                     ?_IIC_Emis 0071       __end_of__initialization 0072  
                   ?_IIC_Init 0070                   ?_IntDisable 0070                 LCD_Envoi@data 0074  
                  ___fltol@f1 00A8                 _backlight_val 00E8  __end_of_ADC_Afficher_Tension 07C6  
              __pcstackCOMMON 0070                  __pidataBANK1 0801             __end_of_IntEnable 07FF  
             ?_instructionLCD 0077        ??_afficherCaractereLCD 0075    afficherCaractereLCD@donnee 0074  
                  ??_ADC_Conv 007A                    ??_ADC_Init 0071                    __pbssBANK1 00CC  
                  ??_IIC_Emis 0073                    ??_IIC_Init 0071             __end_of__Umul8_16 16B3  
                  __pmaintext 0AC4                       ?___flge 0071                       ?___lmul 0071  
                  __pintentry 0004                ___lmul@product 0020                       _LCD_Clr 1653  
                   ?___xxtofl 0071                       _SSP1BUF 0211                  ADC_Conv@Tens 0058  
                     ___fladd 0DF8                       ___fldiv 0C4E                       ___flmul 035B  
                     ___flsub 1752                       ___fltol 08A2                       __ptext1 1788  
                     __ptext2 07C6                       __ptext3 1653                       __ptext4 0913  
                     __ptext5 1701                       __ptext6 07FD                       __ptext7 0002  
                     __ptext8 16DA                       __ptext9 16B3                     _T1CONbits 0018  
                  ??___xxtofl 0075                     _IOCAPbits 0391                     _LCD_Begin 0913  
                   _LCD_Envoi 1728          _ADC_Afficher_Tension 0596                     _LCD_Print 080C  
                     clrloop0 1648                     _FREQ_init 16B3          end_of_initialization 0072  
            LCD_SetCursor@add 0022              LCD_SetCursor@col 007A              LCD_SetCursor@lig 007B  
                     init_ram 164D                       initloop 164E                     _SSPDATPPS 0E21  
                   _SSPCLKPPS 0E20                   ___fladd@grs 0039                 ___xxtofl@sign 0020  
                   _TRISAbits 008C                     _TRISCbits 008E                    ?_LCD_Begin 0070  
       ?_ADC_Afficher_Tension 00B0                   ___fldiv@grs 0068                    ?_LCD_Envoi 0074  
                 ___fldiv@rem 0061                    ?_LCD_Print 0077                    ?_FREQ_init 0070  
              ADC_Conv@Broche 005C                   ___flmul@grs 0048                  ??_IntDisable 0071  
       __end_of_FREQ_Afficher 035B                    LCD_Clr@add 007A              ??_instructionLCD 0078  
              ADC_Conv@result 005D                    LCD_Print@i 0021                __end_of___flge 0A19  
              __end_of___lmul 17BE         __end_of_LCD_SetCursor 07FD                     _IntEnable 07FD  
          __end_of_IntDisable 0004           start_initialization 005D   afficherCaractereLCD@adresse 0078  
                 __end_of_ISR 005B   afficherCaractereLCD@donneeH 0076   afficherCaractereLCD@donneeL 0077  
     ADC_Afficher_Tension@dec 00C3       ADC_Afficher_Tension@cen 00C1       ADC_Afficher_Tension@dix 00C2  
     ADC_Afficher_Tension@mil 00BC                      ??___flge 0020                      ??___lmul 0079  
                   __Umul8_16 1690                   __pdataBANK1 00DE     _ADC_Afficher_Tension$1345 00BD  
   _ADC_Afficher_Tension$1346 00B8            instructionLCD@inst 0077                     ___fladd@a 002A  
                   ___fladd@b 0026                      ?_LCD_Clr 0070                     ___fldiv@a 0054  
                   ___fldiv@b 0058                    ?_IntEnable 0070                     ___flmul@a 003E  
                   ___flmul@b 003A                     ___flsub@a 00A0                     ___flsub@b 00A4  
                   ___latbits 0002        ??_ADC_Afficher_Tension 00B4                 __pcstackBANK0 0020  
               __pcstackBANK1 00A0                   ??_LCD_Begin 007A                   ??_LCD_Envoi 0075  
                 ??_LCD_Print 0079                   ??_FREQ_init 0071                     __pnvBANK1 00E9  
          _FREQ_Afficher$1347 00BF            _FREQ_Afficher$1348 00B8                      ?___fladd 0026  
                    ?___fldiv 0054                      ?___flmul 003A                      ?___flsub 00A0  
                    ?___fltol 00A8                    ?__Umul8_16 0071   ADC_Afficher_Tension@LCD_ADD 00C4  
                    _ADC_Conv 0853                      _ADC_Init 165B                      _IIC_Emis 166E  
                    _IIC_Init 16DA                      _LATAbits 010C                      _LATCbits 010E  
                   clear_ram0 1647                      _PIE1bits 0090                      _PIR1bits 0010  
                   _overFsave 00D7                      _SSP1CON2 0216                      _SSP1STAT 0214  
                  _ADCON0bits 009D                    _ADCON1bits 009E                   ??_IntEnable 0071  
                    _WPUAbits 020C             ___lmul@multiplier 0071                   ??__Umul8_16 0073  
           instructionLCD@add 0079                    _ANSELAbits 018C                    _ANSELCbits 018E  
                    ___xxtofl 0A19                      __ptext10 0076                      __ptext11 098E  
                    __ptext20 0A19                      __ptext12 0C4E                      __ptext21 08A2  
                    __ptext13 080C                    _T1GCONbits 0019                      __ptext22 1752  
                    __ptext14 1728                      __ptext23 0DF8                      __ptext15 165B  
                    __ptext24 035B                      __ptext16 0853                      __ptext25 1690  
                    __ptext17 0596                      __ptext18 17BE                      __ptext19 166E  
                _SSP1CON1bits 0215                  _SSP1CON2bits 0216                      _overFlow 00D8  
                    int$flags 007E                    _ODCONCbits 028E                  _SSP1STATbits 0214  
                  _INTCONbits 000B                    _FVRCONbits 0117                      intlevel1 0000  
__end_of_afficherCaractereLCD 1800                    _OSCCONbits 0099                 __pstringtext1 1800  
               __pstringtext2 1813                 __pstringtext3 1825                 __pstringtext4 1837  
               __pstringtext5 183F                 __pstringtext6 1843                 __pstringtext7 0000  
      __Umul8_16@multiplicand 0071                 ___fladd@signs 0036                  ___fladd@aexp 0037  
                ___fladd@bexp 0038          FREQ_Afficher@LCD_ADD 00C6          __Umul8_16@multiplier 0079  
               _FREQ_Afficher 0076             __Umul8_16@product 0075              FREQ_Afficher@FRE 00B0  
             FREQ_Afficher@XX 00BC              FREQ_Afficher@d1z 00C5  
